(dp0
S'LILMAMA'
p1
S'Lil-mama'
p2
sS'GUCCIMANE'
p3
S'Gucci-mane'
p4
sS'LOUISLOGIC'
p5
S'Louis-logic'
p6
sS'GEAZY'
p7
S'G-eazy'
p8
sS'YOUNGBLEED'
p9
S'Young-bleed'
p10
sS'OMARION'
p11
S'Omarion'
p12
sS'IYAZ'
p13
S'Iyaz'
p14
sS'JCOLE'
p15
S'J-cole'
p16
sS'BLACKROB'
p17
S'Black-rob'
p18
sS'EMINEM'
p19
S'Eminem'
p20
sS'SEANPRICE'
p21
S'Sean-price'
p22
sS'FREDDIEGIBBS'
p23
S'Freddie-gibbs'
p24
sS'GANGSTABOO'
p25
S'Gangsta-boo'
p26
sS'NICOLEWRAY'
p27
S'Nicole-wray'
p28
sS'TONEDEFF'
p29
S'Tonedeff'
p30
sS'CHUCKD'
p31
S'Chuck-d'
p32
sS'MRCAPONEE'
p33
S'Mr-capone-e'
p34
sS'SOUTHPARKMEXICAN'
p35
S'South-park-mexican'
p36
sS'RIFFRAFF'
p37
S'Riff-raff'
p38
sS'BJTHECHICAGOKID'
p39
S'Bj-the-chicago-kid'
p40
sS'AAPFERG'
p41
S'A-ap-ferg'
p42
sS'JIMJONES'
p43
S'Jim-jones'
p44
sS'ROOTSMANUVA'
p45
S'Roots-manuva'
p46
sS'GUNIT'
p47
S'G-unit'
p48
sS'KILLAHPRIEST'
p49
S'Killah-priest'
p50
sS'TIMBALAND'
p51
S'Timbaland'
p52
sS'YOUNGCHRIS'
p53
S'Young-chris'
p54
sS'BEENIEMAN'
p55
S'Beenie-man'
p56
sS'MANN'
p57
S'Mann'
p58
sS'DEREKMINOR'
p59
S'Derek-minor'
p60
sS'BONECRUSHER'
p61
S'Bone-crusher'
p62
sS'YOUNGSCOOTER'
p63
S'Young-scooter'
p64
sS'WEBBIE'
p65
S'Webbie'
p66
sS'SHWAYZE'
p67
S'Shwayze'
p68
sS'TECHN9NE'
p69
S'Tech-n9ne'
p70
sS'SHAGGY'
p71
S'Shaggy'
p72
sS'HAVOC'
p73
S'Havoc'
p74
sS'METHODMAN'
p75
S'Method-man'
p76
sS'CHRISWEBBY'
p77
S'Chris-webby'
p78
sS'CURRENY'
p79
S'Curren-y'
p80
sS'GRAFH'
p81
S'Grafh'
p82
sS'AZEALIABANKS'
p83
S'Azealia-banks'
p84
sS'JOEBUDDEN'
p85
S'Joe-budden'
p86
sS'GUNPLAY'
p87
S'Gunplay'
p88
sS'FOXX'
p89
S'Foxx'
p90
sS'MAC'
p91
S'Mac'
p92
sS'MAE'
p93
S'Ma-e'
p94
sS'FRANKOCEAN'
p95
S'Frank-ocean'
p96
sS'DOMKENNEDY'
p97
S'Dom-kennedy'
p98
sS'SONNYDIGITAL'
p99
S'Sonny-digital'
p100
sS'RASHEEDA'
p101
S'Rasheeda'
p102
sS'NITTYSCOTT'
p103
S'Nitty-scott'
p104
sS'TRINIDADJAMES'
p105
S'Trinidad-james'
p106
sS'CHRISBROWN'
p107
S'Chris-brown'
p108
sS'CHUBBROCK'
p109
S'Chubb-rock'
p110
sS'DOLLA'
p111
S'Dolla'
p112
sS'FUNKMASTERFLEX'
p113
S'Funkmaster-flex'
p114
sS'POSITIVEK'
p115
S'Positive-k'
p116
sS'GLASSESMALONE'
p117
S'Glasses-malone'
p118
sS'LECRAE'
p119
S'Lecrae'
p120
sS'YELAWOLF'
p121
S'Yelawolf'
p122
sS'SHAQUILLEONEAL'
p123
S'Shaquille-oneal'
p124
sS'LILREESE'
p125
S'Lil-reese'
p126
sS'MACMILLER'
p127
S'Mac-miller'
p128
sS'COMMON'
p129
S'Common'
p130
sS'SHAD'
p131
S'Shad'
p132
sS'SNOOPDOGG'
p133
S'Snoop-dogg'
p134
sS'PREIGN'
p135
S'P-reign'
p136
sS'ELEPHANTMAN'
p137
S'Elephant-man'
p138
sS'RICHBOY'
p139
S'Rich-boy'
p140
sS'BLU'
p141
S'Blu'
p142
sS'KIRKOBANGZ'
p143
S'Kirko-bangz'
p144
sS'DRAKE'
p145
S'Drake'
p146
sS'KATIEGOTBANDZ'
p147
S'Katie-got-bandz'
p148
sS'KRAYZIEBONE'
p149
S'Krayzie-bone'
p150
sS'FORTMINOR'
p151
S'Fort-minor'
p152
sS'SIRMIXALOT'
p153
S'Sir-mix-a-lot'
p154
sS'MCSOLAAR'
p155
S'Mc-solaar'
p156
sS'KINGCHIP'
p157
S'King-chip'
p158
sS'QTIP'
p159
S'Q-tip'
p160
sS'RASKASS'
p161
S'Ras-kass'
p162
sS'LILTROY'
p163
S'Lil-troy'
p164
sS'MIKESTUD'
p165
S'Mike-stud'
p166
sS'MYSTIKAL'
p167
S'Mystikal'
p168
sS'KOOLKEITH'
p169
S'Kool-keith'
p170
sS'GHERBO'
p171
S'G-herbo'
p172
sS'THEJACKA'
p173
S'The-jacka'
p174
sS'PROFESSORGREEN'
p175
S'Professor-green'
p176
sS'CHIDDYBANG'
p177
S'Chiddy-bang'
p178
sS'WATSKY'
p179
S'Watsky'
p180
sS'LAURYNHILL'
p181
S'Lauryn-hill'
p182
sS'BENZINO'
p183
S'Benzino'
p184
sS'SCHOOLBOYQ'
p185
S'Schoolboy-q'
p186
sS'SEANKINGSTON'
p187
S'Sean-kingston'
p188
sS'YUNGBERG'
p189
S'Yung-berg'
p190
sS'LOWKEY'
p191
S'Lowkey'
p192
sS'KIDINK'
p193
S'Kid-ink'
p194
sS'BIGSEAN'
p195
S'Big-sean'
p196
sS'CHANELWESTCOAST'
p197
S'Chanel-west-coast'
p198
sS'TABLO'
p199
S'Tablo'
p200
sS'BIGL'
p201
S'Big-l'
p202
sS'GANKSTANIP'
p203
S'Ganksta-nip'
p204
sS'BOBBYSHMURDA'
p205
S'Bobby-shmurda'
p206
sS'LACHAT'
p207
S'La-chat'
p208
sS'PAULWALL'
p209
S'Paul-wall'
p210
sS'SEANPAUL'
p211
S'Sean-paul'
p212
sS'JUSTICE'
p213
S'Justice'
p214
sS'THEKNOCKS'
p215
S'The-knocks'
p216
sS'KIRKKNIGHT'
p217
S'Kirk-knight'
p218
sS'BABYBASH'
p219
S'Baby-bash'
p220
sS'AFURA'
p221
S'Afu-ra'
p222
sS'BAHAMADIA'
p223
S'Bahamadia'
p224
sS'SCARFACE'
p225
S'Scarface'
p226
sS'FREDOSANTANA'
p227
S'Fredo-santana'
p228
sS'KOOLAD'
p229
S'Kool-ad'
p230
sS'LORDFINESSE'
p231
S'Lord-finesse'
p232
sS'MACK10'
p233
S'Mack-10'
p234
sS'ELZHI'
p235
S'Elzhi'
p236
sS'MRCHEEKS'
p237
S'Mr-cheeks'
p238
sS'FRENCHMONTANA'
p239
S'French-montana'
p240
sS'OUTKAST'
p241
S'Outkast'
p242
sS'TEYANATAYLOR'
p243
S'Teyana-taylor'
p244
sS'XXXTENTACION'
p245
S'Xxxtentacion'
p246
sS'FABOLOUS'
p247
S'Fabolous'
p248
sS'ISAIAHRASHAD'
p249
S'Isaiah-rashad'
p250
sS'NONCHALANT'
p251
S'Nonchalant'
p252
sS'GUILTYSIMPSON'
p253
S'Guilty-simpson'
p254
sS'FLYINGLOTUS'
p255
S'Flying-lotus'
p256
sS'GHOSTFACEKILLAH'
p257
S'Ghostface-killah'
p258
sS'MAINO'
p259
S'Maino'
p260
sS'LILDURK'
p261
S'Lil-durk'
p262
sS'BAEZA'
p263
S'Baeza'
p264
sS'LILTWIST'
p265
S'Lil-twist'
p266
sS'TYGA'
p267
S'Tyga'
p268
sS'SD'
p269
S'Sd'
p270
sS'DEVINTHEDUDE'
p271
S'Devin-the-dude'
p272
sS'DJYELLA'
p273
S'Dj-yella'
p274
sS'BLACKSTAR'
p275
S'Black-star'
p276
sS'BAS'
p277
S'Bas'
p278
sS'YC'
p279
S'Yc'
p280
sS'JUSALLAH'
p281
S'Jus-allah'
p282
sS'JUVENILE'
p283
S'Juvenile'
p284
sS'YG'
p285
S'Yg'
p286
sS'YZ'
p287
S'Yz'
p288
sS'KOS'
p289
S'K-os'
p290
sS'TREACH'
p291
S'Treach'
p292
sS'FONZWORTHBENTLEY'
p293
S'Fonzworth-bentley'
p294
sS'IYANYA'
p295
S'Iyanya'
p296
sS'BUNB'
p297
S'Bun-b'
p298
sS'MERKULES'
p299
S'Merkules'
p300
sS'INSPECTAHDECK'
p301
S'Inspectah-deck'
p302
sS'OPENMIKEEAGLE'
p303
S'Open-mike-eagle'
p304
sS'NATURE'
p305
S'Nature'
p306
sS'2PISTOLS'
p307
S'2-pistols'
p308
sS'LOCKSMITH'
p309
S'Locksmith'
p310
sS'HIC'
p311
S'Hi-c'
p312
sS'KRSONE'
p313
S'Krs-one'
p314
sS'SKYZOO'
p315
S'Skyzoo'
p316
sS'JADENSMITH'
p317
S'Jaden-smith'
p318
sS'BOOBA'
p319
S'Booba'
p320
sS'MASTAACE'
p321
S'Masta-ace'
p322
sS'RZA'
p323
S'Rza'
p324
sS'SKEELO'
p325
S'Skee-lo'
p326
sS'TORYLANEZ'
p327
S'Tory-lanez'
p328
sS'QUEENLATIFAH'
p329
S'Queen-latifah'
p330
sS'LILDEBBIE'
p331
S'Lil-debbie'
p332
sS'SNOWTHAPRODUCT'
p333
S'Snow-tha-product'
p334
sS'DEVLIN'
p335
S'Devlin'
p336
sS'RAPSODY'
p337
S'Rapsody'
p338
sS'CHOPPA'
p339
S'Choppa'
p340
sS'FLAME'
p341
S'Flame'
p342
sS'FIEND'
p343
S'Fiend'
p344
sS'TWISTA'
p345
S'Twista'
p346
sS'ACTIONBRONSON'
p347
S'Action-bronson'
p348
sS'KURUPT'
p349
S'Kurupt'
p350
sS'9THWONDER'
p351
S'9th-wonder'
p352
sS'SNOOTIEWILD'
p353
S'Snootie-wild'
p354
sS'PRETTYRICKY'
p355
S'Pretty-ricky'
p356
sS'VERSESIMMONDS'
p357
S'Verse-simmonds'
p358
sS'ROWDYREBEL'
p359
S'Rowdy-rebel'
p360
sS'ANDRE3000'
p361
S'Andre-3000'
p362
sS'HEAVYD'
p363
S'Heavy-d'
p364
sS'KCAMP'
p365
S'K-camp'
p366
sS'YUNGLA'
p367
S'Yung-la'
p368
sS'LILFLIP'
p369
S'Lil-flip'
p370
sS'IGGYAZALEA'
p371
S'Iggy-azalea'
p372
sS'FASHAWN'
p373
S'Fashawn'
p374
sS'TRICKTRICK'
p375
S'Trick-trick'
p376
sS'YOUNGMC'
p377
S'Young-mc'
p378
sS'DIZZEERASCAL'
p379
S'Dizzee-rascal'
p380
sS'PASTORTROY'
p381
S'Pastor-troy'
p382
sS'MIA'
p383
S'Mia'
p384
sS'TMILLS'
p385
S'T-mills'
p386
sS'NONAME'
p387
S'Noname'
p388
sS'KEVINGATES'
p389
S'Kevin-gates'
p390
sS'MACKLEMORE'
p391
S'Macklemore'
p392
sS'RICHHOMIEQUAN'
p393
S'Rich-homie-quan'
p394
sS'YOUNGCHOP'
p395
S'Young-chop'
p396
sS'MARLEYMARL'
p397
S'Marley-marl'
p398
sS'JEREMIH'
p399
S'Jeremih'
p400
sS'SAIGON'
p401
S'Saigon'
p402
sS'DENZELCURRY'
p403
S'Denzel-curry'
p404
sS'EYEDEA'
p405
S'Eyedea'
p406
sS'STEVIESTONE'
p407
S'Stevie-stone'
p408
sS'GRIEVES'
p409
S'Grieves'
p410
sS'LILKIM'
p411
S'Lil-kim'
p412
sS'JAYELECTRONICA'
p413
S'Jay-electronica'
p414
sS'NATEDOGG'
p415
S'Nate-dogg'
p416
sS'NICKIMINAJ'
p417
S'Nicki-minaj'
p418
sS'DJSHADOW'
p419
S'Dj-shadow'
p420
sS'MACLETHAL'
p421
S'Mac-lethal'
p422
sS'ROCMARCIANO'
p423
S'Roc-marciano'
p424
sS'RJ'
p425
S'Rj'
p426
sS'WITCHDOCTOR'
p427
S'Witchdoctor'
p428
sS'SPACEGHOSTPURRP'
p429
S'Spaceghostpurrp'
p430
sS'JARRENBENTON'
p431
S'Jarren-benton'
p432
sS'PUSHAT'
p433
S'Pusha-t'
p434
sS'CAMRON'
p435
S'Camron'
p436
sS'DAZDILLINGER'
p437
S'Daz-dillinger'
p438
sS'FLAVOURNABANIA'
p439
S'Flavour-nabania'
p440
sS'TPAIN'
p441
S'T-pain'
p442
sS'LILWAYNE'
p443
S'Lil-wayne'
p444
sS'WIZKHALIFA'
p445
S'Wiz-khalifa'
p446
sS'MURS'
p447
S'Murs'
p448
sS'YUKMOUTH'
p449
S'Yukmouth'
p450
sS'CHARLESHAMILTON'
p451
S'Charles-hamilton'
p452
sS'VIC'
p453
S'Vic'
p454
sS'KILOALI'
p455
S'Kilo-ali'
p456
sS'KNAAN'
p457
S'Knaan'
p458
sS'ASHERROTH'
p459
S'Asher-roth'
p460
sS'GURU'
p461
S'Guru'
p462
sS'AAPNAST'
p463
S'A-ap-nast'
p464
sS'CLASSIFIED'
p465
S'Classified'
p466
sS'KAM'
p467
S'Kam'
p468
sS'BOWWOW'
p469
S'Bow-wow'
p470
sS'PRAS'
p471
S'Pras'
p472
sS'NIPSEYHUSSLE'
p473
S'Nipsey-hussle'
p474
sS'RAHDIGGA'
p475
S'Rah-digga'
p476
sS'CARNAGE'
p477
S'Carnage'
p478
sS'RAKIM'
p479
S'Rakim'
p480
sS'THELADYOFRAGE'
p481
S'The-lady-of-rage'
p482
sS'LILKEKE'
p483
S'Lil-keke'
p484
sS'WARRENG'
p485
S'Warren-g'
p486
sS'BIGSCOOB'
p487
S'Big-scoob'
p488
sS'KIDFROST'
p489
S'Kid-frost'
p490
sS'DJMUSTARD'
p491
S'Dj-mustard'
p492
sS'JRWRITER'
p493
S'Jr-writer'
p494
sS'STATIKSELEKTAH'
p495
S'Statik-selektah'
p496
sS'100S'
p497
S'100s'
p498
sS'HITEK'
p499
S'Hi-tek'
p500
sS'THEGAME'
p501
S'The-game'
p502
sS'CRAIGMACK'
p503
S'Craig-mack'
p504
sS'SCRILLA'
p505
S'Scrilla'
p506
sS'SZA'
p507
S'Sza'
p508
sS'JARULE'
p509
S'Ja-rule'
p510
sS'FETTYWAP'
p511
S'Fetty-wap'
p512
sS'CEELOGREEN'
p513
S'Ceelo-green'
p514
sS'QWEL'
p515
S'Qwel'
p516
sS'MEEKMILL'
p517
S'Meek-mill'
p518
sS'DANNYBROWN'
p519
S'Danny-brown'
p520
sS'LUDACRIS'
p521
S'Ludacris'
p522
sS'LILWIL'
p523
S'Lil-wil'
p524
sS'DANGELO'
p525
S'Dangelo'
p526
sS'DRDRE'
p527
S'Dr-dre'
p528
sS'LILCEASE'
p529
S'Lil-cease'
p530
sS'MACHINEGUNKELLY'
p531
S'Machine-gun-kelly'
p532
sS'CAGE'
p533
S'Cage'
p534
sS'SCHOOLLYD'
p535
S'Schoolly-d'
p536
sS'TRINA'
p537
S'Trina'
p538
sS'MODSUN'
p539
S'Mod-sun'
p540
sS'BUSDRIVER'
p541
S'Busdriver'
p542
sS'FABRIFIBRA'
p543
S'Fabri-fibra'
p544
sS'GZA'
p545
S'Gza'
p546
sS'PUFFDADDY'
p547
S'Puff-daddy'
p548
sS'TOBYMAC'
p549
S'Tobymac'
p550
sS'NUJABES'
p551
S'Nujabes'
p552
sS'GAEKO'
p553
S'Gaeko'
p554
sS'PHIFEDAWG'
p555
S'Phife-dawg'
p556
sS'COOLIO'
p557
S'Coolio'
p558
sS'MARKBATTLES'
p559
S'Mark-battles'
p560
sS'TAIOCRUZ'
p561
S'Taio-cruz'
p562
sS'PITBULL'
p563
S'Pitbull'
p564
sS'SILLA'
p565
S'Silla'
p566
sS'DELTHEFUNKYHOMOSAPIEN'
p567
S'Del-the-funky-homosapien'
p568
sS'JAEMILLZ'
p569
S'Jae-millz'
p570
sS'OBIETRICE'
p571
S'Obie-trice'
p572
sS'KAPG'
p573
S'Kap-g'
p574
sS'K7'
p575
S'K7'
p576
sS'JEEZY'
p577
S'Jeezy'
p578
sS'KANYEWEST'
p579
S'Kanye-west'
p580
sS'RKELLY'
p581
S'R-kelly'
p582
sS'DJDRAMA'
p583
S'Dj-drama'
p584
sS'TEEFLII'
p585
S'Teeflii'
p586
sS'FIELDMOB'
p587
S'Field-mob'
p588
sS'PIMPC'
p589
S'Pimp-c'
p590
sS'PHYNO'
p591
S'Phyno'
p592
sS'CAPPADONNA'
p593
S'Cappadonna'
p594
sS'JAKEMILLER'
p595
S'Jake-miller'
p596
sS'DAVEEDDIGGS'
p597
S'Daveed-diggs'
p598
sS'MIGOS'
p599
S'Migos'
p600
sS'JEDIMINDTRICKS'
p601
S'Jedi-mind-tricks'
p602
sS'KIDCUDI'
p603
S'Kid-cudi'
p604
sS'KIDCAPRI'
p605
S'Kid-capri'
p606
sS'MCREN'
p607
S'Mc-ren'
p608
sS'RAPMONSTER'
p609
S'Rap-monster'
p610
sS'INDOG'
p611
S'Indo-g'
p612
sS'BEANIESIGEL'
p613
S'Beanie-sigel'
p614
sS'RICHIERICH'
p615
S'Richie-rich'
p616
sS'DIAMONDD'
p617
S'Diamond-d'
p618
sS'BABYBOYDAPRINCE'
p619
S'Baby-boy-da-prince'
p620
sS'MCEIHT'
p621
S'Mc-eiht'
p622
sS'DJSCREW'
p623
S'Dj-screw'
p624
sS'VASTAIRE'
p625
S'Vast-aire'
p626
sS'EVE'
p627
S'Eve'
p628
sS'SLICKRICK'
p629
S'Slick-rick'
p630
sS'AKALA'
p631
S'Akala'
p632
sS'KHIA'
p633
S'Khia'
p634
sS'ILLBILL'
p635
S'Ill-bill'
p636
sS'JAMIEFOXX'
p637
S'Jamie-foxx'
p638
sS'UNK'
p639
S'Unk'
p640
sS'XV'
p641
S'Xv'
p642
sS'KB'
p643
S'Kb'
p644
sS'OGMACO'
p645
S'Og-maco'
p646
sS'CHINX'
p647
S'Chinx'
p648
sS'DAVIDBANNER'
p649
S'David-banner'
p650
sS'SOULJABOY'
p651
S'Soulja-boy'
p652
sS'MCLYTE'
p653
S'Mc-lyte'
p654
sS'MURPHYLEE'
p655
S'Murphy-lee'
p656
sS'BIGMOE'
p657
S'Big-moe'
p658
sS'KILLERMIKE'
p659
S'Killer-mike'
p660
sS'BUBBASPARXXX'
p661
S'Bubba-sparxxx'
p662
sS'EDOG'
p663
S'Edo-g'
p664
sS'LOVERANCE'
p665
S'Loverance'
p666
sS'LORDINFAMOUS'
p667
S'Lord-infamous'
p668
sS'JERUTHEDAMAJA'
p669
S'Jeru-the-damaja'
p670
sS'ANDYMINEO'
p671
S'Andy-mineo'
p672
sS'VIOLENTJ'
p673
S'Violent-j'
p674
sS'THEALCHEMIST'
p675
S'The-alchemist'
p676
sS'JTTHEBIGGAFIGGA'
p677
S'Jt-the-bigga-figga'
p678
sS'BRYSONTILLER'
p679
S'Bryson-tiller'
p680
sS'50CENT'
p681
S'50-cent'
p682
sS'FATPAT'
p683
S'Fat-pat'
p684
sS'PETEYPABLO'
p685
S'Petey-pablo'
p686
sS'CANIBUS'
p687
S'Canibus'
p688
sS'MEMPHISBLEEK'
p689
S'Memphis-bleek'
p690
sS'DJKHALED'
p691
S'Dj-khaled'
p692
sS'APATHY'
p693
S'Apathy'
p694
sS'KERSER'
p695
S'Kerser'
p696
sS'HOPSIN'
p697
S'Hopsin'
p698
sS'JUICE'
p699
S'Juice'
p700
sS'MICKEYFACTZ'
p701
S'Mickey-factz'
p702
sS'XRAIDED'
p703
S'X-raided'
p704
sS'YUNGJOC'
p705
S'Yung-joc'
p706
sS'VNASTY'
p707
S'V-nasty'
p708
sS'MOBBDEEP'
p709
S'Mobb-deep'
p710
sS'REMYMA'
p711
S'Remy-ma'
p712
sS'DJPAUL'
p713
S'Dj-paul'
p714
sS'KAMAIYAH'
p715
S'Kamaiyah'
p716
sS'MIKEPOSNER'
p717
S'Mike-posner'
p718
sS'XZIBIT'
p719
S'Xzibit'
p720
sS'BIZZYBONE'
p721
S'Bizzy-bone'
p722
sS'DJCASPER'
p723
S'Dj-casper'
p724
sS'JACKIEHILLPERRY'
p725
S'Jackie-hill-perry'
p726
sS'DESIIGNER'
p727
S'Desiigner'
p728
sS'MILO'
p729
S'Milo'
p730
sS'BIGDADDYKANE'
p731
S'Big-daddy-kane'
p732
sS'REKS'
p733
S'Reks'
p734
sS'SARKODIE'
p735
S'Sarkodie'
p736
sS'POSTMALONE'
p737
S'Post-malone'
p738
sS'DAVEEAST'
p739
S'Dave-east'
p740
sS'GREYDONSQUARE'
p741
S'Greydon-square'
p742
sS'MAEJORALI'
p743
S'Maejor-ali'
p744
sS'NYCKCAUTION'
p745
S'Nyck-caution'
p746
sS'2CHAINZ'
p747
S'2-chainz'
p748
sS'ESHAM'
p749
S'Esham'
p750
sS'PRINCEPAUL'
p751
S'Prince-paul'
p752
sS'MCHAMMER'
p753
S'Mc-hammer'
p754
sS'STLUNATICS'
p755
S'St-lunatics'
p756
sS'CEZA'
p757
S'Ceza'
p758
sS'KREAYSHAWN'
p759
S'Kreayshawn'
p760
sS'TEDASHII'
p761
S'Tedashii'
p762
sS'WC'
p763
S'Wc'
p764
sS'EARLSWEATSHIRT'
p765
S'Earl-sweatshirt'
p766
sS'JAYPARK'
p767
S'Jay-park'
p768
sS'FLORIDA'
p769
S'Flo-rida'
p770
sS'GDRAGON'
p771
S'G-dragon'
p772
sS'DRAM'
p773
S'Dram'
p774
sS'ERICKSERMON'
p775
S'Erick-sermon'
p776
sS'RUCKARUCKAALI'
p777
S'Rucka-rucka-ali'
p778
sS'APACHE'
p779
S'Apache'
p780
sS'GILBEREFORTE'
p781
S'Gilbere-forte'
p782
sS'PROBLEM'
p783
S'Problem'
p784
sS'NYZZYNYCE'
p785
S'Nyzzy-nyce'
p786
sS'CHINOXL'
p787
S'Chino-xl'
p788
sS'ACEYALONE'
p789
S'Aceyalone'
p790
sS'ROCKIEFRESH'
p791
S'Rockie-fresh'
p792
sS'PROZAK'
p793
S'Prozak'
p794
sS'CROOKEDI'
p795
S'Crooked-i'
p796
sS'AKINYELE'
p797
S'Akinyele'
p798
sS'DABRAT'
p799
S'Da-brat'
p800
sS'PRODIGYOFMOBBDEEP'
p801
S'Prodigy-of-mobb-deep'
p802
sS'LUPEFIASCO'
p803
S'Lupe-fiasco'
p804
sS'SANQUINN'
p805
S'San-quinn'
p806
sS'RICKROSS'
p807
S'Rick-ross'
p808
sS'VERBALJINT'
p809
S'Verbal-jint'
p810
sS'IMMORTALTECHNIQUE'
p811
S'Immortal-technique'
p812
sS'MAGIC'
p813
S'Magic'
p814
sS'TONYYAYO'
p815
S'Tony-yayo'
p816
sS'PAPOOSE'
p817
S'Papoose'
p818
sS'TYDOLLASIGN'
p819
S'Ty-dolla-sign'
p820
sS'FLATBUSHZOMBIES'
p821
S'Flatbush-zombies'
p822
sS'CASSIDY'
p823
S'Cassidy'
p824
sS'ANDERSONPAAK'
p825
S'Anderson-paak'
p826
sS'CHRISTOPHERMARTIN'
p827
S'Christopher-martin'
p828
sS'RAESREMMURD'
p829
S'Rae-sremmurd'
p830
sS'KOOLGRAP'
p831
S'Kool-g-rap'
p832
sS'TOOSHORT'
p833
S'Too-short'
p834
sS'DBLOCK'
p835
S'D-block'
p836
sS'KIDDKIDD'
p837
S'Kidd-kidd'
p838
sS'VAKILL'
p839
S'Vakill'
p840
sS'KITTY'
p841
S'Kitty'
p842
sS'ROYCEDA59'
p843
S'Royce-da-59'
p844
sS'NORE'
p845
S'Nore'
p846
sS'BIZMARKIE'
p847
S'Biz-markie'
p848
sS'OLIVIA'
p849
S'Olivia'
p850
sS'SLIMTHUG'
p851
S'Slim-thug'
p852
sS'DAVIDDALLAS'
p853
S'David-dallas'
p854
sS'TINIETEMPAH'
p855
S'Tinie-tempah'
p856
sS'JADAKISS'
p857
S'Jadakiss'
p858
sS'KATDAHLIA'
p859
S'Kat-dahlia'
p860
sS'LILYACHTY'
p861
S'Lil-yachty'
p862
sS'SPOSE'
p863
S'Spose'
p864
sS'FREEWAY'
p865
S'Freeway'
p866
sS'OLDIRTYBASTARD'
p867
S'Ol-dirty-bastard'
p868
sS'CHIEFKEEF'
p869
S'Chief-keef'
p870
sS'DMX'
p871
S'Dmx'
p872
sS'FRAYSERBOY'
p873
S'Frayser-boy'
p874
sS'JAMAL'
p875
S'Jamal'
p876
sS'NECRO'
p877
S'Necro'
p878
sS'MICKJENKINS'
p879
S'Mick-jenkins'
p880
sS'RAEKWON'
p881
S'Raekwon'
p882
sS'TRAETHATRUTH'
p883
S'Trae-tha-truth'
p884
sS'MONTANAOF300'
p885
S'Montana-of-300'
p886
sS'JUICYJ'
p887
S'Juicy-j'
p888
sS'ROGERTROUTMAN'
p889
S'Roger-troutman'
p890
sS'TROYAVE'
p891
S'Troy-ave'
p892
sS'ILOVEMAKONNEN'
p893
S'Ilovemakonnen'
p894
sS'360'
p895
S'360'
p896
sS'THREE6MAFIA'
p897
S'Three-6-mafia'
p898
sS'DJKAYSLAY'
p899
S'Dj-kay-slay'
p900
sS'E40'
p901
S'E-40'
p902
sS'FATTREL'
p903
S'Fat-trel'
p904
sS'WUTANGCLAN'
p905
S'Wu-tang-clan'
p906
sS'THEOPHILUSLONDON'
p907
S'Theophilus-london'
p908
sS'RITTZ'
p909
S'Rittz'
p910
sS'THEDREAM'
p911
S'The-dream'
p912
sS'SPICE1'
p913
S'Spice-1'
p914
sS'TERRORSQUAD'
p915
S'Terror-squad'
p916
sS'YOGOTTI'
p917
S'Yo-gotti'
p918
sS'MIKEJONES'
p919
S'Mike-jones'
p920
sS'OHNO'
p921
S'Oh-no'
p922
sS'TWISTEDINSANE'
p923
S'Twisted-insane'
p924
sS'MISTAHFAB'
p925
S'Mistah-fab'
p926
sS'DRAGON'
p927
S'Drag-on'
p928
sS'MADCHILD'
p929
S'Madchild'
p930
sS'FOXYBROWN'
p931
S'Foxy-brown'
p932
sS'TRIPLEE'
p933
S'Trip-lee'
p934
sS'PSY'
p935
S'Psy'
p936
sS'VICMENSA'
p937
S'Vic-mensa'
p938
sS'ICET'
p939
S'Ice-t'
p940
sS'ANGELHAZE'
p941
S'Angel-haze'
p942
sS'KARDINALOFFISHALL'
p943
S'Kardinal-offishall'
p944
sS'CLIPSE'
p945
S'Clipse'
p946
sS'YOUROLDDROOG'
p947
S'Your-old-droog'
p948
sS'ACEHOOD'
p949
S'Ace-hood'
p950
sS'I20'
p951
S'I-20'
p952
sS'SWIZZBEATZ'
p953
S'Swizz-beatz'
p954
sS'CHIP'
p955
S'Chip'
p956
sS'DIZZYWRIGHT'
p957
S'Dizzy-wright'
p958
sS'JACKPAROW'
p959
S'Jack-parow'
p960
sS'DUMBFOUNDEAD'
p961
S'Dumbfoundead'
p962
sS'YASIINBEY'
p963
S'Yasiin-bey'
p964
sS'TERMANOLOGY'
p965
S'Termanology'
p966
sS'GRANDMASTERMELLEMEL'
p967
S'Grandmaster-melle-mel'
p968
sS'DEMFRANCHIZEBOYZ'
p969
S'Dem-franchize-boyz'
p970
sS'BIGTYMERS'
p971
S'Big-tymers'
p972
sS'AWKWAFINA'
p973
S'Awkwafina'
p974
sS'WESTSIDEGUNN'
p975
S'Westside-gunn'
p976
sS'JKWON'
p977
S'J-kwon'
p978
sS'ABSOUL'
p979
S'Ab-soul'
p980
sS'FREDROSTARR'
p981
S'Fredro-starr'
p982
sS'MFGRIMM'
p983
S'Mf-grimm'
p984
sS'CHAMILLIONAIRE'
p985
S'Chamillionaire'
p986
sS'HURRICANECHRIS'
p987
S'Hurricane-chris'
p988
sS'THEUNDERACHIEVERS'
p989
S'The-underachievers'
p990
sS'STARLITO'
p991
S'Starlito'
p992
sS'CJFLY'
p993
S'Cj-fly'
p994
sS'JERMAINEDUPRI'
p995
S'Jermaine-dupri'
p996
sS'PEEWEELONGWAY'
p997
S'Peewee-longway'
p998
sS'MACDRE'
p999
S'Mac-dre'
p1000
sS'CL'
p1001
S'Cl'
p1002
sS'WIZKID'
p1003
S'Wizkid'
p1004
sS'FREE'
p1005
S'Free'
p1006
sS'YABOY'
p1007
S'Ya-boy'
p1008
sS'JDILLA'
p1009
S'J-dilla'
p1010
sS'KEAKDASNEAK'
p1011
S'Keak-da-sneak'
p1012
sS'HONEYCOCAINE'
p1013
S'Honey-cocaine'
p1014
sS'LILDICKY'
p1015
S'Lil-dicky'
p1016
sS'GRANDMASTERFLASH'
p1017
S'Grandmaster-flash'
p1018
sS'JTMONEY'
p1019
S'Jt-money'
p1020
sS'WYCLEFJEAN'
p1021
S'Wyclef-jean'
p1022
sS'LILJON'
p1023
S'Lil-jon'
p1024
sS'HUEY'
p1025
S'Huey'
p1026
sS'YOUNGNOBLE'
p1027
S'Young-noble'
p1028
sS'SUGAFREE'
p1029
S'Suga-free'
p1030
sS'TELA'
p1031
S'Tela'
p1032
sS'ROCKO'
p1033
S'Rocko'
p1034
sS'ODDISEE'
p1035
S'Oddisee'
p1036
sS'BIGPUN'
p1037
S'Big-pun'
p1038
sS'MIMS'
p1039
S'Mims'
p1040
sS'21SAVAGE'
p1041
S'21-savage'
p1042
sS'WILLOWSMITH'
p1043
S'Willow-smith'
p1044
sS'KEITHMURRAY'
p1045
S'Keith-murray'
p1046
sS'BIRDMAN'
p1047
S'Birdman'
p1048
sS'DJQUIK'
p1049
S'Dj-quik'
p1050
sS'PROOF'
p1051
S'Proof'
p1052
sS'RICHCHIGGA'
p1053
S'Rich-chigga'
p1054
sS'FRANKIEJ'
p1055
S'Frankie-j'
p1056
sS'ANGIEMARTINEZ'
p1057
S'Angie-martinez'
p1058
sS'CMURDER'
p1059
S'C-murder'
p1060
sS'CASKEY'
p1061
S'Caskey'
p1062
sS'BROTHERALI'
p1063
S'Brother-ali'
p1064
sS'JONCONNOR'
p1065
S'Jon-connor'
p1066
sS'TIMAYA'
p1067
S'Timaya'
p1068
sS'SAGEFRANCIS'
p1069
S'Sage-francis'
p1070
sS'REDFOO'
p1071
S'Redfoo'
p1072
sS'HALFAMILL'
p1073
S'Half-a-mill'
p1074
sS'TRAGEDYKHADAFI'
p1075
S'Tragedy-khadafi'
p1076
sS'WILLIETHEKID'
p1077
S'Willie-the-kid'
p1078
sS'NUMP'
p1079
S'Nump'
p1080
sS'MIKEWILLMADEIT'
p1081
S'Mike-will-made-it'
p1082
sS'TYLERJOSEPH'
p1083
S'Tyler-joseph'
p1084
sS'MIKEG'
p1085
S'Mike-g'
p1086
sS'CASEYVEGGIES'
p1087
S'Casey-veggies'
p1088
sS'OLAMIDE'
p1089
S'Olamide'
p1090
sS'BIGKRIT'
p1091
S'Big-krit'
p1092
sS'SKEME'
p1093
S'Skeme'
p1094
sS'KOOLMOEDEE'
p1095
S'Kool-moe-dee'
p1096
sS'JOHNCENA'
p1097
S'John-cena'
p1098
sS'NOCLUE'
p1099
S'Noclue'
p1100
sS'REDMAN'
p1101
S'Redman'
p1102
sS'RJD2'
p1103
S'Rjd2'
p1104
sS'MASTAKILLA'
p1105
S'Masta-killa'
p1106
sS'FOCUS'
p1107
S'Focus'
p1108
sS'FERGIE'
p1109
S'Fergie'
p1110
sS'BOONDOX'
p1111
S'Boondox'
p1112
sS'RAYJ'
p1113
S'Ray-j'
p1114
sS'TRICKDADDY'
p1115
S'Trick-daddy'
p1116
sS'BLACKMILK'
p1117
S'Black-milk'
p1118
sS'BIGBOI'
p1119
S'Big-boi'
p1120
sS'PLIES'
p1121
S'Plies'
p1122
sS'BG'
p1123
S'Bg'
p1124
sS'DEJLOAF'
p1125
S'Dej-loaf'
p1126
sS'ANDRENICKATINA'
p1127
S'Andre-nickatina'
p1128
sS'KODAKBLACK'
p1129
S'Kodak-black'
p1130
sS'HODGY'
p1131
S'Hodgy'
p1132
sS'NAS'
p1133
S'Nas'
p1134
sS'TALIBKWELI'
p1135
S'Talib-kweli'
p1136
sS'JIBBS'
p1137
S'Jibbs'
p1138
sS'NAV'
p1139
S'Nav'
p1140
sS'FATMANSCOOP'
p1141
S'Fatman-scoop'
p1142
sS'BOB'
p1143
S'Bob'
p1144
sS'LILSCRAPPY'
p1145
S'Lil-scrappy'
p1146
sS'STYLESP'
p1147
S'Styles-p'
p1148
sS'THEDOC'
p1149
S'The-doc'
p1150
sS'YOUNGMAYLAY'
p1151
S'Young-maylay'
p1152
sS'REEFTHELOSTCAUZE'
p1153
S'Reef-the-lost-cauze'
p1154
sS'AAPTWELVYY'
p1155
S'A-ap-twelvyy'
p1156
sS'BOOSIEBADAZZ'
p1157
S'Boosie-badazz'
p1158
sS'TURK'
p1159
S'Turk'
p1160
sS'VINCESTAPLES'
p1161
S'Vince-staples'
p1162
sS'YOUNGBLOODZ'
p1163
S'Youngbloodz'
p1164
sS'DEUCE'
p1165
S'Deuce'
p1166
sS'GUERILLABLACK'
p1167
S'Guerilla-black'
p1168
sS'SHYGLIZZY'
p1169
S'Shy-glizzy'
p1170
sS'MASTERP'
p1171
S'Master-p'
p1172
sS'YUNGLEAN'
p1173
S'Yung-lean'
p1174
sS'JEANGRAE'
p1175
S'Jean-grae'
p1176
sS'KURTISBLOW'
p1177
S'Kurtis-blow'
p1178
sS'DENIROFARRAR'
p1179
S'Deniro-farrar'
p1180
sS'DIGGYSIMMONS'
p1181
S'Diggy-simmons'
p1182
sS'NOMALICE'
p1183
S'No-malice'
p1184
sS'SMOKEDZA'
p1185
S'Smoke-dza'
p1186
sS'PORTA'
p1187
S'Porta'
p1188
sS'BLACKTHOUGHT'
p1189
S'Black-thought'
p1190
sS'VANILLAICE'
p1191
S'Vanilla-ice'
p1192
sS'JOELLORTIZ'
p1193
S'Joell-ortiz'
p1194
sS'PROJECTPAT'
p1195
S'Project-pat'
p1196
sS'EAZYE'
p1197
S'Eazy-e'
p1198
sS'DIABOLIC'
p1199
S'Diabolic'
p1200
sS'UNCLEMURDA'
p1201
S'Uncle-murda'
p1202
sS'DOEB'
p1203
S'Doe-b'
p1204
sS'WAKAFLOCKAFLAME'
p1205
S'Waka-flocka-flame'
p1206
sS'HITTMAN'
p1207
S'Hittman'
p1208
sS'DANBULL'
p1209
S'Dan-bull'
p1210
sS'CHILDISHGAMBINO'
p1211
S'Childish-gambino'
p1212
sS'CHARLIBALTIMORE'
p1213
S'Charli-baltimore'
p1214
sS'VADO'
p1215
S'Vado'
p1216
sS'RHYMEFEST'
p1217
S'Rhymefest'
p1218
sS'CLYDECARSON'
p1219
S'Clyde-carson'
p1220
sS'NICKCANNON'
p1221
S'Nick-cannon'
p1222
sS'FUTURE'
p1223
S'Future'
p1224
sS'YOUNGBUCK'
p1225
S'Young-buck'
p1226
sS'CELPHTITLED'
p1227
S'Celph-titled'
p1228
sS'CHINGY'
p1229
S'Chingy'
p1230
sS'PHAROAHEMONCH'
p1231
S'Pharoahe-monch'
p1232
sS'MRMUTHAFUCKINEXQUIRE'
p1233
S'Mr-muthafuckin-exquire'
p1234
sS'LLOYDBANKS'
p1235
S'Lloyd-banks'
p1236
sS'CHANCETHERAPPER'
p1237
S'Chance-the-rapper'
p1238
sS'RATHERUGGEDMAN'
p1239
S'Ra-the-rugged-man'
p1240
sS'DEV'
p1241
S'Dev'
p1242
sS'WILLIED'
p1243
S'Willie-d'
p1244
sS'RIHANNA'
p1245
S'Rihanna'
p1246
sS'ROBSONIC'
p1247
S'Rob-sonic'
p1248
sS'KUNGFUVAMPIRE'
p1249
S'Kung-fu-vampire'
p1250
sS'GORILLAZOE'
p1251
S'Gorilla-zoe'
p1252
sS'YUNGRO'
p1253
S'Yung-ro'
p1254
sS'CORMEGA'
p1255
S'Cormega'
p1256
sS'LILB'
p1257
S'Lil-b'
p1258
sS'KJ52'
p1259
S'Kj-52'
p1260
sS'AMG'
p1261
S'Amg'
p1262
sS'NELLY'
p1263
S'Nelly'
p1264
sS'MISSYELLIOTT'
p1265
S'Missy-elliott'
p1266
sS'RONNIERADKE'
p1267
S'Ronnie-radke'
p1268
sS'LILUZIVERT'
p1269
S'Lil-uzi-vert'
p1270
sS'RICHTHEKID'
p1271
S'Rich-the-kid'
p1272
sS'TIMDOG'
p1273
S'Tim-dog'
p1274
sS'2PAC'
p1275
S'2pac'
p1276
sS'JME'
p1277
S'Jme'
p1278
sS'BOBBYBRACKINS'
p1279
S'Bobby-brackins'
p1280
sS'AESOPROCK'
p1281
S'Aesop-rock'
p1282
sS'GUDDAGUDDA'
p1283
S'Gudda-gudda'
p1284
sS'AAPMOB'
p1285
S'A-ap-mob'
p1286
sS'KENDRICKLAMAR'
p1287
S'Kendrick-lamar'
p1288
sS'FLAVORFLAV'
p1289
S'Flavor-flav'
p1290
sS'THEQUIETT'
p1291
S'The-quiett'
p1292
sS'TERRACEMARTIN'
p1293
S'Terrace-martin'
p1294
sS'ESG'
p1295
S'Esg'
p1296
sS'KUTTCALHOUN'
p1297
S'Kutt-calhoun'
p1298
sS'HOODIEALLEN'
p1299
S'Hoodie-allen'
p1300
sS'MFDOOM'
p1301
S'Mf-doom'
p1302
sS'MCSHAN'
p1303
S'Mc-shan'
p1304
sS'SADISTIK'
p1305
S'Sadistik'
p1306
sS'UO'
p1307
S'U-o'
p1308
sS'BECKYG'
p1309
S'Becky-g'
p1310
sS'LLCOOLJ'
p1311
S'Ll-cool-j'
p1312
sS'JAYROCK'
p1313
S'Jay-rock'
p1314
sS'YOUNGTHUG'
p1315
S'Young-thug'
p1316
sS'YINGYANGTWINS'
p1317
S'Ying-yang-twins'
p1318
sS'LARGEPROFESSOR'
p1319
S'Large-professor'
p1320
sS'DAPPY'
p1321
S'Dappy'
p1322
sS'AAPANT'
p1323
S'A-ap-ant'
p1324
sS'STALLEY'
p1325
S'Stalley'
p1326
sS'AHMAD'
p1327
S'Ahmad'
p1328
sS'FATHERMC'
p1329
S'Father-mc'
p1330
sS'TREYSONGZ'
p1331
S'Trey-songz'
p1332
sS'TRAVISSCOTT'
p1333
S'Travis-scott'
p1334
sS'YOONMIRAE'
p1335
S'Yoonmirae'
p1336
sS'DOMOGENESIS'
p1337
S'Domo-genesis'
p1338
sS'SAMMYADAMS'
p1339
S'Sammy-adams'
p1340
sS'DILLONCOOPER'
p1341
S'Dillon-cooper'
p1342
sS'FROST'
p1343
S'Frost'
p1344
sS'GIGGS'
p1345
S'Giggs'
p1346
sS'YAKIKADAFI'
p1347
S'Yaki-kadafi'
p1348
sS'NF'
p1349
S'Nf'
p1350
sS'GRANDMASTERCAZ'
p1351
S'Grandmaster-caz'
p1352
sS'JAHLILBEATS'
p1353
S'Jahlil-beats'
p1354
sS'OJDAJUICEMAN'
p1355
S'Oj-da-juiceman'
p1356
sS'KINGGORDY'
p1357
S'King-gordy'
p1358
sS'CHEVYWOODS'
p1359
S'Chevy-woods'
p1360
sS'FATJOE'
p1361
S'Fat-joe'
p1362
sS'EDOMAAJKA'
p1363
S'Edo-maajka'
p1364
sS'VINNIEPAZ'
p1365
S'Vinnie-paz'
p1366
sS'YUNG6IX'
p1367
S'Yung6ix'
p1368
sS'JSTALIN'
p1369
S'J-stalin'
p1370
sS'WILLSMITH'
p1371
S'Will-smith'
p1372
sS'AKON'
p1373
S'Akon'
p1374
sS'HUSH'
p1375
S'Hush'
p1376
sS'KEVINMCCALL'
p1377
S'Kevin-mccall'
p1378
sS'FREAKNASTY'
p1379
S'Freak-nasty'
p1380
sS'ICECUBE'
p1381
S'Ice-cube'
p1382
sS'CONSEQUENCE'
p1383
S'Consequence'
p1384
sS'ELP'
p1385
S'El-p'
p1386
sS'CYHITHEPRYNCE'
p1387
S'Cyhi-the-prynce'
p1388
sS'BOHEMIA'
p1389
S'Bohemia'
p1390
sS'HITBOY'
p1391
S'Hit-boy'
p1392
sS'AFROMAN'
p1393
S'Afroman'
p1394
sS'RAPPIN4TAY'
p1395
S'Rappin-4-tay'
p1396
sS'CELLYCEL'
p1397
S'Celly-cel'
p1398
sS'BISHOPNEHRU'
p1399
S'Bishop-nehru'
p1400
sS'YUNGWUN'
p1401
S'Yung-wun'
p1402
sS'FROGGYFRESH'
p1403
S'Froggy-fresh'
p1404
sS'WILLIAM'
p1405
S'William'
p1406
sS'TBONE'
p1407
S'T-bone'
p1408
sS'BIGD'
p1409
S'Big-d'
p1410
sS'SHOBARAKA'
p1411
S'Sho-baraka'
p1412
sS'DJCLUE'
p1413
S'Dj-clue'
p1414
sS'LILBIBBY'
p1415
S'Lil-bibby'
p1416
sS'YOUNGDRO'
p1417
S'Young-dro'
p1418
sS'WALE'
p1419
S'Wale'
p1420
sS'SAGETHEGEMINI'
p1421
S'Sage-the-gemini'
p1422
sS'ERICBIDDINES'
p1423
S'Eric-biddines'
p1424
sS'EVIDENCE'
p1425
S'Evidence'
p1426
sS'JAYZ'
p1427
S'Jay-z'
p1428
sS'HUSSEINFATAL'
p1429
S'Hussein-fatal'
p1430
sS'RICOLOVE'
p1431
S'Rico-love'
p1432
sS'LOGIC'
p1433
S'Logic'
p1434
sS'MRCRIMINAL'
p1435
S'Mr-criminal'
p1436
sS'PHARRELLWILLIAMS'
p1437
S'Pharrell-williams'
p1438
sS'BUSTARHYMES'
p1439
S'Busta-rhymes'
p1440
sS'THENOTORIOUSBIG'
p1441
S'The-notorious-big'
p1442
sS'QUEENPEN'
p1443
S'Queen-pen'
p1444
sS'BROTHALYNCHHUNG'
p1445
S'Brotha-lynch-hung'
p1446
sS'DAH'
p1447
S'Da-h'
p1448
sS'LILWYTE'
p1449
S'Lil-wyte'
p1450
sS'CAPITALSTEEZ'
p1451
S'Capital-steez'
p1452
sS'DOK2'
p1453
S'Dok2'
p1454
sS'FRENKIE'
p1455
S'Frenkie'
p1456
sS'WREKONIZE'
p1457
S'Wrekonize'
p1458
sS'STICKYFINGAZ'
p1459
S'Sticky-fingaz'
p1460
sS'SHYHEIM'
p1461
S'Shyheim'
p1462
sS'GDEP'
p1463
S'G-dep'
p1464
sS'TI'
p1465
S'Ti'
p1466
sS'UGOD'
p1467
S'U-god'
p1468
sS'YOYOHONEYSINGH'
p1469
S'Yo-yo-honey-singh'
p1470
sS'DORROUGH'
p1471
S'Dorrough'
p1472
sS'JOYNERLUCAS'
p1473
S'Joyner-lucas'
p1474
sS'KIDROCK'
p1475
S'Kid-rock'
p1476
sS'MAXB'
p1477
S'Max-b'
p1478
sS'JUELZSANTANA'
p1479
S'Juelz-santana'
p1480
sS'AZ'
p1481
S'Az'
p1482
sS'VALETE'
p1483
S'Valete'
p1484
sS'RAPPERBIGPOOH'
p1485
S'Rapper-big-pooh'
p1486
sS'KRIZZKALIKO'
p1487
S'Krizz-kaliko'
p1488
sS'QUAVO'
p1489
S'Quavo'
p1490
sS'PHILTHYRICH'
p1491
S'Philthy-rich'
p1492
sS'SOULJASLIM'
p1493
S'Soulja-slim'
p1494
sS'GRANDPUBA'
p1495
S'Grand-puba'
p1496
sS'SHAWTYLO'
p1497
S'Shawty-lo'
p1498
sS'SHYNE'
p1499
S'Shyne'
p1500
sS'TWAYNE'
p1501
S'T-wayne'
p1502
sS'SWIZZZ'
p1503
S'Swizzz'
p1504
sS'JAYOFELONY'
p1505
S'Jayo-felony'
p1506
sS'ASTRONAUTALIS'
p1507
S'Astronautalis'
p1508
sS'IMRANKHAN'
p1509
S'Imran-khan'
p1510
sS'BIZARRE'
p1511
S'Bizarre'
p1512
sS'LILO'
p1513
S'Lil-o'
p1514
s.