(dp0
S'Three-6-mafia'
p1
S'Three 6 Mafia'
p2
sS'David-dallas'
p3
S'David Dallas'
p4
sS'Young-thug'
p5
S'Young Thug'
p6
sS'Angie-martinez'
p7
S'Angie Martinez'
p8
sS'Juicy-j'
p9
S'Juicy J'
p10
sS'A-ap-mob'
p11
S'A$AP Mob'
p12
sS'Desiigner'
p13
S'Desiigner'
p14
sS'Roger-troutman'
p15
S'Roger Troutman'
p16
sS'Fiend'
p17
S'Fiend'
p18
sS'Camron'
p19
S'Camron'
p20
sS'Meek-mill'
p21
S'Meek Mill'
p22
sS'Heavy-d'
p23
S'Heavy D'
p24
sS'Watsky'
p25
S'Watsky'
p26
sS'Young-chris'
p27
S'Young Chris'
p28
sS'Eminem'
p29
S'Eminem'
p30
sS'Dj-kay-slay'
p31
S'Dj Kay Slay'
p32
sS'Esham'
p33
S'Esham'
p34
sS'Apache'
p35
S'Apache'
p36
sS'Shaquille-oneal'
p37
S'Shaquille Oneal'
p38
sS'Scrilla'
p39
S'Scrilla'
p40
sS'Krs-one'
p41
S'Krs One'
p42
sS'Dj-clue'
p43
S'Dj Clue'
p44
sS'Vast-aire'
p45
S'Vast Aire'
p46
sS'Charli-baltimore'
p47
S'Charli Baltimore'
p48
sS'Sadistik'
p49
S'Sadistik'
p50
sS'Jeru-the-damaja'
p51
S'Jeru The Damaja'
p52
sS'Ying-yang-twins'
p53
S'Ying Yang Twins'
p54
sS'9th-wonder'
p55
S'9th Wonder'
p56
sS'T-pain'
p57
S'T Pain'
p58
sS'Dom-kennedy'
p59
S'Dom Kennedy'
p60
sS'Lil-mama'
p61
S'Lil Mama'
p62
sS'Necro'
p63
S'Necro'
p64
sS'Soulja-slim'
p65
S'Soulja Slim'
p66
sS'Daveed-diggs'
p67
S'Daveed Diggs'
p68
sS'Phife-dawg'
p69
S'Phife Dawg'
p70
sS'Big-tymers'
p71
S'Big Tymers'
p72
sS'Juice'
p73
S'Juice'
p74
sS'Tony-yayo'
p75
S'Tony Yayo'
p76
sS'Smoke-dza'
p77
S'Smoke Dza'
p78
sS'Master-p'
p79
S'Master P'
p80
sS'Andre-3000'
p81
S'Andre 3000'
p82
sS'Warren-g'
p83
S'Warren G'
p84
sS'Missy-elliott'
p85
S'Missy Elliott'
p86
sS'Frankie-j'
p87
S'Frankie J'
p88
sS'Sage-the-gemini'
p89
S'Sage The Gemini'
p90
sS'The-alchemist'
p91
S'The Alchemist'
p92
sS'Blu'
p93
S'Blu'
p94
sS'J-kwon'
p95
S'J Kwon'
p96
sS'Mike-will-made-it'
p97
S'Mike Will Made It'
p98
sS'Mark-battles'
p99
S'Mark Battles'
p100
sS'Brother-ali'
p101
S'Brother Ali'
p102
sS'Rjd2'
p103
S'Rjd2'
p104
sS'Will-smith'
p105
S'Will Smith'
p106
sS'Swizzz'
p107
S'Swizzz'
p108
sS'Grafh'
p109
S'Grafh'
p110
sS'Krizz-kaliko'
p111
S'Krizz Kaliko'
p112
sS'V-nasty'
p113
S'V Nasty'
p114
sS'Shwayze'
p115
S'Shwayze'
p116
sS'Snoop-dogg'
p117
S'Snoop Dogg'
p118
sS'Guilty-simpson'
p119
S'Guilty Simpson'
p120
sS'Carnage'
p121
S'Carnage'
p122
sS'Killah-priest'
p123
S'Killah Priest'
p124
sS'C-murder'
p125
S'C Murder'
p126
sS'Large-professor'
p127
S'Large Professor'
p128
sS'Olivia'
p129
S'Olivia'
p130
sS'Erick-sermon'
p131
S'Erick Sermon'
p132
sS'Mc-eiht'
p133
S'Mc Eiht'
p134
sS'Jack-parow'
p135
S'Jack Parow'
p136
sS'Becky-g'
p137
S'Becky G'
p138
sS'Kanye-west'
p139
S'Kanye West'
p140
sS'Bj-the-chicago-kid'
p141
S'Bj The Chicago Kid'
p142
sS'Verbal-jint'
p143
S'Verbal Jint'
p144
sS'Classified'
p145
S'Classified'
p146
sS'Hopsin'
p147
S'Hopsin'
p148
sS'Akala'
p149
S'Akala'
p150
sS'Qwel'
p151
S'Qwel'
p152
sS'Kid-frost'
p153
S'Kid Frost'
p154
sS'Pitbull'
p155
S'Pitbull'
p156
sS'Fabri-fibra'
p157
S'Fabri Fibra'
p158
sS'Lil-dicky'
p159
S'Lil Dicky'
p160
sS'Skeme'
p161
S'Skeme'
p162
sS'Dj-drama'
p163
S'Dj Drama'
p164
sS'Juvenile'
p165
S'Juvenile'
p166
sS'Sza'
p167
S'Sza'
p168
sS'Chuck-d'
p169
S'Chuck D'
p170
sS'Trick-daddy'
p171
S'Trick Daddy'
p172
sS'The-lady-of-rage'
p173
S'The Lady Of Rage'
p174
sS'Raekwon'
p175
S'Raekwon'
p176
sS'Valete'
p177
S'Valete'
p178
sS'Hush'
p179
S'Hush'
p180
sS'Joell-ortiz'
p181
S'Joell Ortiz'
p182
sS'Maino'
p183
S'Maino'
p184
sS'Ol-dirty-bastard'
p185
S'Ol Dirty Bastard'
p186
sS'Bizarre'
p187
S'Bizarre'
p188
sS'Murs'
p189
S'Murs'
p190
sS'Ja-rule'
p191
S'Ja Rule'
p192
sS'Nipsey-hussle'
p193
S'Nipsey Hussle'
p194
sS'Dj-quik'
p195
S'Dj Quik'
p196
sS'Justice'
p197
S'Justice'
p198
sS'Wiz-khalifa'
p199
S'Wiz Khalifa'
p200
sS'Dolla'
p201
S'Dolla'
p202
sS'Nick-cannon'
p203
S'Nick Cannon'
p204
sS'Big-krit'
p205
S'Big Krit'
p206
sS'Murphy-lee'
p207
S'Murphy Lee'
p208
sS'The-quiett'
p209
S'The Quiett'
p210
sS'Method-man'
p211
S'Method Man'
p212
sS'Fat-joe'
p213
S'Fat Joe'
p214
sS'Willow-smith'
p215
S'Willow Smith'
p216
sS'Snootie-wild'
p217
S'Snootie Wild'
p218
sS'T-wayne'
p219
S'T Wayne'
p220
sS'K-camp'
p221
S'K Camp'
p222
sS'Lil-wyte'
p223
S'Lil Wyte'
p224
sS'Remy-ma'
p225
S'Remy Ma'
p226
sS'Lil-yachty'
p227
S'Lil Yachty'
p228
sS'Akon'
p229
S'Akon'
p230
sS'Jermaine-dupri'
p231
S'Jermaine Dupri'
p232
sS'Wrekonize'
p233
S'Wrekonize'
p234
sS'Philthy-rich'
p235
S'Philthy Rich'
p236
sS'Dram'
p237
S'Dram'
p238
sS'Dj-paul'
p239
S'Dj Paul'
p240
sS'Kurupt'
p241
S'Kurupt'
p242
sS'Rza'
p243
S'Rza'
p244
sS'Terror-squad'
p245
S'Terror Squad'
p246
sS'Cj-fly'
p247
S'Cj Fly'
p248
sS'Trinidad-james'
p249
S'Trinidad James'
p250
sS'Timbaland'
p251
S'Timbaland'
p252
sS'Eve'
p253
S'Eve'
p254
sS'Dj-casper'
p255
S'Dj Casper'
p256
sS'Jahlil-beats'
p257
S'Jahlil Beats'
p258
sS'Akinyele'
p259
S'Akinyele'
p260
sS'Obie-trice'
p261
S'Obie Trice'
p262
sS'Peewee-longway'
p263
S'Peewee Longway'
p264
sS'Childish-gambino'
p265
S'Childish Gambino'
p266
sS'2pac'
p267
S'2pac'
p268
sS'Sd'
p269
S'Sd'
p270
sS'Baby-boy-da-prince'
p271
S'Baby Boy Da Prince'
p272
sS'Yung-wun'
p273
S'Yung Wun'
p274
sS'Yung-berg'
p275
S'Yung Berg'
p276
sS'Katie-got-bandz'
p277
S'Katie Got Bandz'
p278
sS'Lil-jon'
p279
S'Lil Jon'
p280
sS'Ludacris'
p281
S'Ludacris'
p282
sS'Jaden-smith'
p283
S'Jaden Smith'
p284
sS'2-chainz'
p285
S'2 Chainz'
p286
sS'Lord-infamous'
p287
S'Lord Infamous'
p288
sS'Diamond-d'
p289
S'Diamond D'
p290
sS'Guerilla-black'
p291
S'Guerilla Black'
p292
sS'U-god'
p293
S'U God'
p294
sS'Yo-yo-honey-singh'
p295
S'Yo Yo Honey Singh'
p296
sS'Chino-xl'
p297
S'Chino Xl'
p298
sS'G-herbo'
p299
S'G Herbo'
p300
sS'Sarkodie'
p301
S'Sarkodie'
p302
sS'Kardinal-offishall'
p303
S'Kardinal Offishall'
p304
sS'Ras-kass'
p305
S'Ras Kass'
p306
sS'G-eazy'
p307
S'G Eazy'
p308
sS'Mia'
p309
S'Mia'
p310
sS'Hit-boy'
p311
S'Hit Boy'
p312
sS'Rich-boy'
p313
S'Rich Boy'
p314
sS'Casey-veggies'
p315
S'Casey Veggies'
p316
sS'Nore'
p317
S'Nore'
p318
sS'Grandmaster-flash'
p319
S'Grandmaster Flash'
p320
sS'Jean-grae'
p321
S'Jean Grae'
p322
sS'Redfoo'
p323
S'Redfoo'
p324
sS'G-dragon'
p325
S'G Dragon'
p326
sS'Grieves'
p327
S'Grieves'
p328
sS'Kam'
p329
S'Kam'
p330
sS'Ice-t'
p331
S'Ice T'
p332
sS'Yz'
p333
S'Yz'
p334
sS'Tyler-joseph'
p335
S'Tyler Joseph'
p336
sS'Mike-g'
p337
S'Mike G'
p338
sS'Inspectah-deck'
p339
S'Inspectah Deck'
p340
sS'Da-brat'
p341
S'Da Brat'
p342
sS'50-cent'
p343
S'50 Cent'
p344
sS'Jay-electronica'
p345
S'Jay Electronica'
p346
sS'Birdman'
p347
S'Birdman'
p348
sS'Rico-love'
p349
S'Rico Love'
p350
sS'French-montana'
p351
S'French Montana'
p352
sS'Greydon-square'
p353
S'Greydon Square'
p354
sS'Riff-raff'
p355
S'Riff Raff'
p356
sS'Starlito'
p357
S'Starlito'
p358
sS'Nyzzy-nyce'
p359
S'Nyzzy Nyce'
p360
sS'Dumbfoundead'
p361
S'Dumbfoundead'
p362
sS'Young-mc'
p363
S'Young Mc'
p364
sS'Dok2'
p365
S'Dok2'
p366
sS'Bizzy-bone'
p367
S'Bizzy Bone'
p368
sS'Rap-monster'
p369
S'Rap Monster'
p370
sS'2-pistols'
p371
S'2 Pistols'
p372
sS'Krayzie-bone'
p373
S'Krayzie Bone'
p374
sS'Yc'
p375
S'Yc'
p376
sS'Mod-sun'
p377
S'Mod Sun'
p378
sS'Bryson-tiller'
p379
S'Bryson Tiller'
p380
sS'21-savage'
p381
S'21 Savage'
p382
sS'Spice-1'
p383
S'Spice 1'
p384
sS'Madchild'
p385
S'Madchild'
p386
sS'Mc-shan'
p387
S'Mc Shan'
p388
sS'Bahamadia'
p389
S'Bahamadia'
p390
sS'Xzibit'
p391
S'Xzibit'
p392
sS'Too-short'
p393
S'Too Short'
p394
sS'Queen-pen'
p395
S'Queen Pen'
p396
sS'Celly-cel'
p397
S'Celly Cel'
p398
sS'Denzel-curry'
p399
S'Denzel Curry'
p400
sS'Queen-latifah'
p401
S'Queen Latifah'
p402
sS'Rj'
p403
S'Rj'
p404
sS'Snow-tha-product'
p405
S'Snow Tha Product'
p406
sS'Kirko-bangz'
p407
S'Kirko Bangz'
p408
sS'Ill-bill'
p409
S'Ill Bill'
p410
sS'Spaceghostpurrp'
p411
S'Spaceghostpurrp'
p412
sS'Devlin'
p413
S'Devlin'
p414
sS'Rowdy-rebel'
p415
S'Rowdy Rebel'
p416
sS'The-dream'
p417
S'The Dream'
p418
sS'Jus-allah'
p419
S'Jus Allah'
p420
sS'Sammy-adams'
p421
S'Sammy Adams'
p422
sS'Ra-the-rugged-man'
p423
S'Ra The Rugged Man'
p424
sS'Reks'
p425
S'Reks'
p426
sS'Sean-price'
p427
S'Sean Price'
p428
sS'Bas'
p429
S'Bas'
p430
sS'Suga-free'
p431
S'Suga Free'
p432
sS'Porta'
p433
S'Porta'
p434
sS'Rapsody'
p435
S'Rapsody'
p436
sS'Nf'
p437
S'Nf'
p438
sS'Your-old-droog'
p439
S'Your Old Droog'
p440
sS'Lauryn-hill'
p441
S'Lauryn Hill'
p442
sS'Mc-solaar'
p443
S'Mc Solaar'
p444
sS'Eazy-e'
p445
S'Eazy E'
p446
sS'Stevie-stone'
p447
S'Stevie Stone'
p448
sS'Masta-ace'
p449
S'Masta Ace'
p450
sS'Fredro-starr'
p451
S'Fredro Starr'
p452
sS'Wyclef-jean'
p453
S'Wyclef Jean'
p454
sS'Yung6ix'
p455
S'Yung6ix'
p456
sS'Diabolic'
p457
S'Diabolic'
p458
sS'Jadakiss'
p459
S'Jadakiss'
p460
sS'Daz-dillinger'
p461
S'Daz Dillinger'
p462
sS'Black-milk'
p463
S'Black Milk'
p464
sS'Dem-franchize-boyz'
p465
S'Dem Franchize Boyz'
p466
sS'Mobb-deep'
p467
S'Mobb Deep'
p468
sS'A-ap-ant'
p469
S'A$AP Ant'
p470
sS'Kevin-gates'
p471
S'Kevin Gates'
p472
sS'Indo-g'
p473
S'Indo G'
p474
sS'Shad'
p475
S'Shad'
p476
sS'Mf-grimm'
p477
S'Mf Grimm'
p478
sS'Omarion'
p479
S'Omarion'
p480
sS'Fabolous'
p481
S'Fabolous'
p482
sS'Lil-o'
p483
S'Lil O'
p484
sS'Dr-dre'
p485
S'Dr Dre'
p486
sS'Jibbs'
p487
S'Jibbs'
p488
sS'Project-pat'
p489
S'Project Pat'
p490
sS'Baby-bash'
p491
S'Baby Bash'
p492
sS'Curren-y'
p493
S'Curren Y'
p494
sS'Hi-c'
p495
S'Hi C'
p496
sS'Shyheim'
p497
S'Shyheim'
p498
sS'Swizz-beatz'
p499
S'Swizz Beatz'
p500
sS'Big-pun'
p501
S'Big Pun'
p502
sS'Royce-da-59'
p503
S'Royce Da 59'
p504
sS'Lil-twist'
p505
S'Lil Twist'
p506
sS'Chinx'
p507
S'Chinx'
p508
sS'Ll-cool-j'
p509
S'Ll Cool J'
p510
sS'Sage-francis'
p511
S'Sage Francis'
p512
sS'Kilo-ali'
p513
S'Kilo Ali'
p514
sS'Nelly'
p515
S'Nelly'
p516
sS'Field-mob'
p517
S'Field Mob'
p518
sS'Young-scooter'
p519
S'Young Scooter'
p520
sS'100s'
p521
S'100s'
p522
sS'Rakim'
p523
S'Rakim'
p524
sS'Slick-rick'
p525
S'Slick Rick'
p526
sS'Yelawolf'
p527
S'Yelawolf'
p528
sS'Hurricane-chris'
p529
S'Hurricane Chris'
p530
sS'Post-malone'
p531
S'Post Malone'
p532
sS'Dizzy-wright'
p533
S'Dizzy Wright'
p534
sS'X-raided'
p535
S'X Raided'
p536
sS'Unk'
p537
S'Unk'
p538
sS'Max-b'
p539
S'Max B'
p540
sS'Oj-da-juiceman'
p541
S'Oj Da Juiceman'
p542
sS'Vic'
p543
S'Vic'
p544
sS'Kool-ad'
p545
S'Kool Ad'
p546
sS'Aceyalone'
p547
S'Aceyalone'
p548
sS'Iyaz'
p549
S'Iyaz'
p550
sS'Devin-the-dude'
p551
S'Devin The Dude'
p552
sS'Astronautalis'
p553
S'Astronautalis'
p554
sS'Talib-kweli'
p555
S'Talib Kweli'
p556
sS'Nujabes'
p557
S'Nujabes'
p558
sS'Montana-of-300'
p559
S'Montana Of 300'
p560
sS'Mc-hammer'
p561
S'Mc Hammer'
p562
sS'Bishop-nehru'
p563
S'Bishop Nehru'
p564
sS'Dappy'
p565
S'Dappy'
p566
sS'Kutt-calhoun'
p567
S'Kutt Calhoun'
p568
sS'Dj-shadow'
p569
S'Dj Shadow'
p570
sS'Kerser'
p571
S'Kerser'
p572
sS'K7'
p573
S'K7'
p574
sS'Imran-khan'
p575
S'Imran Khan'
p576
sS'Rae-sremmurd'
p577
S'Rae Sremmurd'
p578
sS'Ganksta-nip'
p579
S'Ganksta Nip'
p580
sS'Mr-capone-e'
p581
S'Mr Capone E'
p582
sS'Half-a-mill'
p583
S'Half A Mill'
p584
sS'Ray-j'
p585
S'Ray J'
p586
sS'Big-daddy-kane'
p587
S'Big Daddy Kane'
p588
sS'Nature'
p589
S'Nature'
p590
sS'Bobby-shmurda'
p591
S'Bobby Shmurda'
p592
sS'Frost'
p593
S'Frost'
p594
sS'Giggs'
p595
S'Giggs'
p596
sS'Black-rob'
p597
S'Black Rob'
p598
sS'Keith-murray'
p599
S'Keith Murray'
p600
sS'Deuce'
p601
S'Deuce'
p602
sS'Verse-simmonds'
p603
S'Verse Simmonds'
p604
sS'Puff-daddy'
p605
S'Puff Daddy'
p606
sS'Iyanya'
p607
S'Iyanya'
p608
sS'Kb'
p609
S'Kb'
p610
sS'Dizzee-rascal'
p611
S'Dizzee Rascal'
p612
sS'Bobby-brackins'
p613
S'Bobby Brackins'
p614
sS'Lil-troy'
p615
S'Lil Troy'
p616
sS'Young-chop'
p617
S'Young Chop'
p618
sS'J-dilla'
p619
S'J Dilla'
p620
sS'Papoose'
p621
S'Papoose'
p622
sS'Big-l'
p623
S'Big L'
p624
sS'Jt-money'
p625
S'Jt Money'
p626
sS'Azealia-banks'
p627
S'Azealia Banks'
p628
sS'Young-buck'
p629
S'Young Buck'
p630
sS'Big-sean'
p631
S'Big Sean'
p632
sS'Big-d'
p633
S'Big D'
p634
sS'Problem'
p635
S'Problem'
p636
sS'Troy-ave'
p637
S'Troy Ave'
p638
sS'Clipse'
p639
S'Clipse'
p640
sS'Mc-lyte'
p641
S'Mc Lyte'
p642
sS'Mike-posner'
p643
S'Mike Posner'
p644
sS'Afroman'
p645
S'Afroman'
p646
sS'Gilbere-forte'
p647
S'Gilbere Forte'
p648
sS'Juelz-santana'
p649
S'Juelz Santana'
p650
sS'Rittz'
p651
S'Rittz'
p652
sS'Gza'
p653
S'Gza'
p654
sS'Gudda-gudda'
p655
S'Gudda Gudda'
p656
sS'Tinie-tempah'
p657
S'Tinie Tempah'
p658
sS'Xv'
p659
S'Xv'
p660
sS'Fort-minor'
p661
S'Fort Minor'
p662
sS'Paul-wall'
p663
S'Paul Wall'
p664
sS'Saigon'
p665
S'Saigon'
p666
sS'I-20'
p667
S'I 20'
p668
sS'Gangsta-boo'
p669
S'Gangsta Boo'
p670
sS'Flying-lotus'
p671
S'Flying Lotus'
p672
sS'Busta-rhymes'
p673
S'Busta Rhymes'
p674
sS'Mick-jenkins'
p675
S'Mick Jenkins'
p676
sS'Freddie-gibbs'
p677
S'Freddie Gibbs'
p678
sS'Chamillionaire'
p679
S'Chamillionaire'
p680
sS'Chingy'
p681
S'Chingy'
p682
sS'G-unit'
p683
S'G-Unit'
p684
sS'Coolio'
p685
S'Coolio'
p686
sS'Rah-digga'
p687
S'Rah Digga'
p688
sS'John-cena'
p689
S'John Cena'
p690
sS'Deniro-farrar'
p691
S'Deniro Farrar'
p692
sS'Westside-gunn'
p693
S'Westside Gunn'
p694
sS'Kid-rock'
p695
S'Kid Rock'
p696
sS'Phyno'
p697
S'Phyno'
p698
sS'Professor-green'
p699
S'Professor Green'
p700
sS'Khia'
p701
S'Khia'
p702
sS'Chance-the-rapper'
p703
S'Chance The Rapper'
p704
sS'Masta-killa'
p705
S'Masta Killa'
p706
sS'Ceelo-green'
p707
S'Ceelo Green'
p708
sS'Bun-b'
p709
S'Bun B'
p710
sS'Dj-screw'
p711
S'Dj Screw'
p712
sS'Vince-staples'
p713
S'Vince Staples'
p714
sS'Twista'
p715
S'Twista'
p716
sS'David-banner'
p717
S'David Banner'
p718
sS'Logic'
p719
S'Logic'
p720
sS'Rick-ross'
p721
S'Rick Ross'
p722
sS'King-gordy'
p723
S'King Gordy'
p724
sS'Lil-durk'
p725
S'Lil Durk'
p726
sS'Fonzworth-bentley'
p727
S'Fonzworth Bentley'
p728
sS'Teyana-taylor'
p729
S'Teyana Taylor'
p730
sS'Shyne'
p731
S'Shyne'
p732
sS'Soulja-boy'
p733
S'Soulja Boy'
p734
sS'Ghostface-killah'
p735
S'Ghostface Killah'
p736
sS'Dave-east'
p737
S'Dave East'
p738
sS'Vinnie-paz'
p739
S'Vinnie Paz'
p740
sS'Hodgy'
p741
S'Hodgy'
p742
sS'Skee-lo'
p743
S'Skee Lo'
p744
sS'Dangelo'
p745
S'Dangelo'
p746
sS'Willie-d'
p747
S'Willie D'
p748
sS'Guru'
p749
S'Guru'
p750
sS'Nonchalant'
p751
S'Nonchalant'
p752
sS'Lloyd-banks'
p753
S'Lloyd Banks'
p754
sS'Mac-dre'
p755
S'Mac Dre'
p756
sS'Lord-finesse'
p757
S'Lord Finesse'
p758
sS'Rich-the-kid'
p759
S'Rich The Kid'
p760
sS'Kreayshawn'
p761
S'Kreayshawn'
p762
sS'Mims'
p763
S'Mims'
p764
sS'Wc'
p765
S'Wc'
p766
sS'Cormega'
p767
S'Cormega'
p768
sS'Frenkie'
p769
S'Frenkie'
p770
sS'Merkules'
p771
S'Merkules'
p772
sS'Mf-doom'
p773
S'Mf Doom'
p774
sS'Positive-k'
p775
S'Positive K'
p776
sS'Spose'
p777
S'Spose'
p778
sS'Free'
p779
S'Free'
p780
sS'Dj-khaled'
p781
S'Dj Khaled'
p782
sS'Psy'
p783
S'Psy'
p784
sS'Kevin-mccall'
p785
S'Kevin Mccall'
p786
sS'Chiddy-bang'
p787
S'Chiddy Bang'
p788
sS'Sho-baraka'
p789
S'Sho Baraka'
p790
sS'Iggy-azalea'
p791
S'Iggy Azalea'
p792
sS'Anderson-paak'
p793
S'Anderson Paak'
p794
sS'Pharrell-williams'
p795
S'Pharrell Williams'
p796
sS'Yukmouth'
p797
S'Yukmouth'
p798
sS'The-jacka'
p799
S'The Jacka'
p800
sS'Magic'
p801
S'Magic'
p802
sS'Willie-the-kid'
p803
S'Willie The Kid'
p804
sS'Xxxtentacion'
p805
S'Xxxtentacion'
p806
sS'Flo-rida'
p807
S'Flo Rida'
p808
sS'Witchdoctor'
p809
S'Witchdoctor'
p810
sS'Awkwafina'
p811
S'Awkwafina'
p812
sS'Ahmad'
p813
S'Ahmad'
p814
sS'A-ap-nast'
p815
S'A$AP Nast'
p816
sS'The-doc'
p817
S'The Doc'
p818
sS'Turk'
p819
S'Turk'
p820
sS'Termanology'
p821
S'Termanology'
p822
sS'U-o'
p823
S'U O'
p824
sS'Teeflii'
p825
S'Teeflii'
p826
sS'Lil-uzi-vert'
p827
S'Lil Uzi Vert'
p828
sS'Rihanna'
p829
S'Rihanna'
p830
sS'Lil-kim'
p831
S'Lil Kim'
p832
sS'Jim-jones'
p833
S'Jim Jones'
p834
sS'Kid-cudi'
p835
S'Kid Cudi'
p836
sS'Cage'
p837
S'Cage'
p838
sS'Joe-budden'
p839
S'Joe Budden'
p840
sS'Ilovemakonnen'
p841
S'Ilovemakonnen'
p842
sS'Theophilus-london'
p843
S'Theophilus London'
p844
sS'Kurtis-blow'
p845
S'Kurtis Blow'
p846
sS'Oddisee'
p847
S'Oddisee'
p848
sS'Edo-maajka'
p849
S'Edo Maajka'
p850
sS'No-malice'
p851
S'No Malice'
p852
sS'Lil-wil'
p853
S'Lil Wil'
p854
sS'Young-bleed'
p855
S'Young Bleed'
p856
sS'Frayser-boy'
p857
S'Frayser Boy'
p858
sS'Vakill'
p859
S'Vakill'
p860
sS'Grand-puba'
p861
S'Grand Puba'
p862
sS'Rhymefest'
p863
S'Rhymefest'
p864
sS'Kap-g'
p865
S'Kap G'
p866
sS'Eric-biddines'
p867
S'Eric Biddines'
p868
sS'Trey-songz'
p869
S'Trey Songz'
p870
sS'Locksmith'
p871
S'Locksmith'
p872
sS'Chris-webby'
p873
S'Chris Webby'
p874
sS'Dan-bull'
p875
S'Dan Bull'
p876
sS'Elzhi'
p877
S'Elzhi'
p878
sS'Rasheeda'
p879
S'Rasheeda'
p880
sS'Yasiin-bey'
p881
S'Yasiin Bey'
p882
sS'Flavour-nabania'
p883
S'Flavour Nabania'
p884
sS'Kool-moe-dee'
p885
S'Kool Moe Dee'
p886
sS'Keak-da-sneak'
p887
S'Keak Da Sneak'
p888
sS'Gunplay'
p889
S'Gunplay'
p890
sS'Benzino'
p891
S'Benzino'
p892
sS'Pretty-ricky'
p893
S'Pretty Ricky'
p894
sS'Bubba-sparxxx'
p895
S'Bubba Sparxxx'
p896
sS'Mac-miller'
p897
S'Mac Miller'
p898
sS'Boondox'
p899
S'Boondox'
p900
sS'Dej-loaf'
p901
S'Dej Loaf'
p902
sS'360'
p903
S'360'
p904
sS'Travis-scott'
p905
S'Travis Scott'
p906
sS'Jayo-felony'
p907
S'Jayo Felony'
p908
sS'Choppa'
p909
S'Choppa'
p910
sS'Ronnie-radke'
p911
S'Ronnie Radke'
p912
sS'Loverance'
p913
S'Loverance'
p914
sS'Ace-hood'
p915
S'Ace Hood'
p916
sS'Maejor-ali'
p917
S'Maejor Ali'
p918
sS'Kat-dahlia'
p919
S'Kat Dahlia'
p920
sS'Kung-fu-vampire'
p921
S'Kung Fu Vampire'
p922
sS'Og-maco'
p923
S'Og Maco'
p924
sS'Hussein-fatal'
p925
S'Hussein Fatal'
p926
sS'Chevy-woods'
p927
S'Chevy Woods'
p928
sS'Sir-mix-a-lot'
p929
S'Sir Mix A Lot'
p930
sS'Elephant-man'
p931
S'Elephant Man'
p932
sS'Tragedy-khadafi'
p933
S'Tragedy Khadafi'
p934
sS'Fredo-santana'
p935
S'Fredo Santana'
p936
sS'Lil-scrappy'
p937
S'Lil Scrappy'
p938
sS'Chip'
p939
S'Chip'
p940
sS'Focus'
p941
S'Focus'
p942
sS'Sean-paul'
p943
S'Sean Paul'
p944
sS'Fashawn'
p945
S'Fashawn'
p946
sS'Prodigy-of-mobb-deep'
p947
S'Prodigy Of Mobb Deep'
p948
sS'Chief-keef'
p949
S'Chief Keef'
p950
sS'Ty-dolla-sign'
p951
S'Ty Dolla Sign'
p952
sS'Joyner-lucas'
p953
S'Joyner Lucas'
p954
sS'Nitty-scott'
p955
S'Nitty Scott'
p956
sS'Domo-genesis'
p957
S'Domo Genesis'
p958
sS'Fergie'
p959
S'Fergie'
p960
sS'Trina'
p961
S'Trina'
p962
sS'Canibus'
p963
S'Canibus'
p964
sS'Lil-bibby'
p965
S'Lil Bibby'
p966
sS'Knaan'
p967
S'Knaan'
p968
sS'Busdriver'
p969
S'Busdriver'
p970
sS'The-notorious-big'
p971
S'The Notorious Big'
p972
sS'Terrace-martin'
p973
S'Terrace Martin'
p974
sS'Kidd-kidd'
p975
S'Kidd Kidd'
p976
sS'Asher-roth'
p977
S'Asher Roth'
p978
sS'Fetty-wap'
p979
S'Fetty Wap'
p980
sS'Yg'
p981
S'Yg'
p982
sS'Migos'
p983
S'Migos'
p984
sS'Roc-marciano'
p985
S'Roc Marciano'
p986
sS'Frank-ocean'
p987
S'Frank Ocean'
p988
sS'Tech-n9ne'
p989
S'Tech N9ne'
p990
sS'Reef-the-lost-cauze'
p991
S'Reef The Lost Cauze'
p992
sS'E-40'
p993
S'E 40'
p994
sS'Ya-boy'
p995
S'Ya Boy'
p996
sS'Lil-cease'
p997
S'Lil Cease'
p998
sS'Andre-nickatina'
p999
S'Andre Nickatina'
p1000
sS'Capital-steez'
p1001
S'Capital Steez'
p1002
sS'Skyzoo'
p1003
S'Skyzoo'
p1004
sS'Dmx'
p1005
S'Dmx'
p1006
sS'Jamal'
p1007
S'Jamal'
p1008
sS'Black-star'
p1009
S'Black Star'
p1010
sS'Kirk-knight'
p1011
S'Kirk Knight'
p1012
sS'Ceza'
p1013
S'Ceza'
p1014
sS'Cl'
p1015
S'Cl'
p1016
sS'Rockie-fresh'
p1017
S'Rockie Fresh'
p1018
sS'Glasses-malone'
p1019
S'Glasses Malone'
p1020
sS'Rapper-big-pooh'
p1021
S'Rapper Big Pooh'
p1022
sS'Ti'
p1023
S'Ti'
p1024
sS'Youngbloodz'
p1025
S'Youngbloodz'
p1026
sS'Tory-lanez'
p1027
S'Tory Lanez'
p1028
sS'Doe-b'
p1029
S'Doe B'
p1030
sS'Mr-criminal'
p1031
S'Mr Criminal'
p1032
sS'Sonny-digital'
p1033
S'Sonny Digital'
p1034
sS'Vic-mensa'
p1035
S'Vic Mensa'
p1036
sS'Richie-rich'
p1037
S'Richie Rich'
p1038
sS'Prozak'
p1039
S'Prozak'
p1040
sS'A-ap-ferg'
p1041
S'A$AP Ferg'
p1042
sS'Caskey'
p1043
S'Caskey'
p1044
sS'T-mills'
p1045
S'T Mills'
p1046
sS'Tela'
p1047
S'Tela'
p1048
sS'Nas'
p1049
S'Nas'
p1050
sS'Nav'
p1051
S'Nav'
p1052
sS'Chanel-west-coast'
p1053
S'Chanel West Coast'
p1054
sS'Q-tip'
p1055
S'Q Tip'
p1056
sS'Flavor-flav'
p1057
S'Flavor Flav'
p1058
sS'Jackie-hill-perry'
p1059
S'Jackie Hill Perry'
p1060
sS'Grandmaster-melle-mel'
p1061
S'Grandmaster Melle Mel'
p1062
sS'Huey'
p1063
S'Huey'
p1064
sS'Styles-p'
p1065
S'Styles P'
p1066
sS'Lecrae'
p1067
S'Lecrae'
p1068
sS'Kamaiyah'
p1069
S'Kamaiyah'
p1070
sS'Dj-yella'
p1071
S'Dj Yella'
p1072
sS'Rucka-rucka-ali'
p1073
S'Rucka Rucka Ali'
p1074
sS'Kid-ink'
p1075
S'Kid Ink'
p1076
sS'Dj-mustard'
p1077
S'Dj Mustard'
p1078
sS'Craig-mack'
p1079
S'Craig Mack'
p1080
sS'Plies'
p1081
S'Plies'
p1082
sS'Ice-cube'
p1083
S'Ice Cube'
p1084
sS'Kj-52'
p1085
S'Kj 52'
p1086
sS'The-game'
p1087
S'The Game'
p1088
sS'Schoolboy-q'
p1089
S'Schoolboy Q'
p1090
sS'Brotha-lynch-hung'
p1091
S'Brotha Lynch Hung'
p1092
sS'Freeway'
p1093
S'Freeway'
p1094
sS'Prince-paul'
p1095
S'Prince Paul'
p1096
sS'Nate-dogg'
p1097
S'Nate Dogg'
p1098
sS'Yung-lean'
p1099
S'Yung Lean'
p1100
sS'K-os'
p1101
S'K Os'
p1102
sS'Celph-titled'
p1103
S'Celph Titled'
p1104
sS'Marley-marl'
p1105
S'Marley Marl'
p1106
sS'Yo-gotti'
p1107
S'Yo Gotti'
p1108
sS'Ma-e'
p1109
S'Mase'
p1110
sS'R-kelly'
p1111
S'R Kelly'
p1112
sS'Action-bronson'
p1113
S'Action Bronson'
p1114
sS'Pimp-c'
p1115
S'Pimp C'
p1116
sS'Pusha-t'
p1117
S'Pusha T'
p1118
sS'A-ap-twelvyy'
p1119
S'A$AP Twelvyy'
p1120
sS'Pastor-troy'
p1121
S'Pastor Troy'
p1122
sS'San-quinn'
p1123
S'San Quinn'
p1124
sS'P-reign'
p1125
S'P Reign'
p1126
sS'Sticky-fingaz'
p1127
S'Sticky Fingaz'
p1128
sS'Oh-no'
p1129
S'Oh No'
p1130
sS'Tablo'
p1131
S'Tablo'
p1132
sS'Beenie-man'
p1133
S'Beenie Man'
p1134
sS'Afu-ra'
p1135
S'Afu Ra'
p1136
sS'Angel-haze'
p1137
S'Angel Haze'
p1138
sS'South-park-mexican'
p1139
S'South Park Mexican'
p1140
sS'Killer-mike'
p1141
S'Killer Mike'
p1142
sS'Immortal-technique'
p1143
S'Immortal Technique'
p1144
sS'Bone-crusher'
p1145
S'Bone Crusher'
p1146
sS'Jake-miller'
p1147
S'Jake Miller'
p1148
sS'Sean-kingston'
p1149
S'Sean Kingston'
p1150
sS'Dorrough'
p1151
S'Dorrough'
p1152
sS'Big-moe'
p1153
S'Big Moe'
p1154
sS'Schoolly-d'
p1155
S'Schoolly D'
p1156
sS'Bg'
p1157
S'Bg'
p1158
sS'Nump'
p1159
S'Nump'
p1160
sS'Roots-manuva'
p1161
S'Roots Manuva'
p1162
sS'Kid-capri'
p1163
S'Kid Capri'
p1164
sS'Jeezy'
p1165
S'Jeezy'
p1166
sS'Young-dro'
p1167
S'Young Dro'
p1168
sS'Mr-muthafuckin-exquire'
p1169
S'Mr Muthafuckin Exquire'
p1170
sS'Gucci-mane'
p1171
S'Gucci Mane'
p1172
sS'Beanie-sigel'
p1173
S'Beanie Sigel'
p1174
sS'Aesop-rock'
p1175
S'Aesop Rock'
p1176
sS'Rob-sonic'
p1177
S'Rob Sonic'
p1178
sS'Shaggy'
p1179
S'Shaggy'
p1180
sS'Taio-cruz'
p1181
S'Taio Cruz'
p1182
sS'Mac-lethal'
p1183
S'Mac Lethal'
p1184
sS'Vado'
p1185
S'Vado'
p1186
sS'Drake'
p1187
S'Drake'
p1188
sS'Timaya'
p1189
S'Timaya'
p1190
sS'Olamide'
p1191
S'Olamide'
p1192
sS'Andy-mineo'
p1193
S'Andy Mineo'
p1194
sS'Rich-chigga'
p1195
S'Rich Chigga'
p1196
sS'Mann'
p1197
S'Mann'
p1198
sS'Proof'
p1199
S'Proof'
p1200
sS'Twisted-insane'
p1201
S'Twisted Insane'
p1202
sS'Uncle-murda'
p1203
S'Uncle Murda'
p1204
sS'King-chip'
p1205
S'King Chip'
p1206
sS'Honey-cocaine'
p1207
S'Honey Cocaine'
p1208
sS'Macklemore'
p1209
S'Macklemore'
p1210
sS'Black-thought'
p1211
S'Black Thought'
p1212
sS'Violent-j'
p1213
S'Violent J'
p1214
sS'Baeza'
p1215
S'Baeza'
p1216
sS'Pras'
p1217
S'Pras'
p1218
sS'Fat-trel'
p1219
S'Fat Trel'
p1220
sS'Del-the-funky-homosapien'
p1221
S'Del The Funky Homosapien'
p1222
sS'Freak-nasty'
p1223
S'Freak Nasty'
p1224
sS'Statik-selektah'
p1225
S'Statik Selektah'
p1226
sS'Cyhi-the-prynce'
p1227
S'Cyhi The Prynce'
p1228
sS'Fat-pat'
p1229
S'Fat Pat'
p1230
sS'Petey-pablo'
p1231
S'Petey Pablo'
p1232
sS'Trick-trick'
p1233
S'Trick Trick'
p1234
sS'Jt-the-bigga-figga'
p1235
S'Jt The Bigga Figga'
p1236
sS'Drag-on'
p1237
S'Drag On'
p1238
sS'Trae-tha-truth'
p1239
S'Trae Tha Truth'
p1240
sS'Mistah-fab'
p1241
S'Mistah Fab'
p1242
sS'Kool-keith'
p1243
S'Kool Keith'
p1244
sS'Bohemia'
p1245
S'Bohemia'
p1246
sS'Noname'
p1247
S'Noname'
p1248
sS'Lil-wayne'
p1249
S'Lil Wayne'
p1250
sS'St-lunatics'
p1251
S'St Lunatics'
p1252
sS'Mike-jones'
p1253
S'Mike Jones'
p1254
sS'Hoodie-allen'
p1255
S'Hoodie Allen'
p1256
sS'Treach'
p1257
S'Treach'
p1258
sS'Young-maylay'
p1259
S'Young Maylay'
p1260
sS'Tim-dog'
p1261
S'Tim Dog'
p1262
sS'Charles-hamilton'
p1263
S'Charles Hamilton'
p1264
sS'El-p'
p1265
S'El P'
p1266
sS'Jon-connor'
p1267
S'Jon Connor'
p1268
sS'Yung-ro'
p1269
S'Yung Ro'
p1270
sS'Vanilla-ice'
p1271
S'Vanilla Ice'
p1272
sS'Booba'
p1273
S'Booba'
p1274
sS'Nicole-wray'
p1275
S'Nicole Wray'
p1276
sS'Ab-soul'
p1277
S'Ab Soul'
p1278
sS'Noclue'
p1279
S'Noclue'
p1280
sS'Jay-rock'
p1281
S'Jay Rock'
p1282
sS'Tedashii'
p1283
S'Tedashii'
p1284
sS'La-chat'
p1285
S'La Chat'
p1286
sS'D-block'
p1287
S'D Block'
p1288
sS'Clyde-carson'
p1289
S'Clyde Carson'
p1290
sS'Christopher-martin'
p1291
S'Christopher Martin'
p1292
sS'Shy-glizzy'
p1293
S'Shy Glizzy'
p1294
sS'Milo'
p1295
S'Milo'
p1296
sS'Bob'
p1297
S'Bob'
p1298
sS'Froggy-fresh'
p1299
S'Froggy Fresh'
p1300
sS'Lowkey'
p1301
S'Lowkey'
p1302
sS'Derek-minor'
p1303
S'Derek Minor'
p1304
sS'Webbie'
p1305
S'Webbie'
p1306
sS'Waka-flocka-flame'
p1307
S'Waka Flocka Flame'
p1308
sS'Evidence'
p1309
S'Evidence'
p1310
sS'Scarface'
p1311
S'Scarface'
p1312
sS'Grandmaster-caz'
p1313
S'Grandmaster Caz'
p1314
sS'Lil-keke'
p1315
S'Lil Keke'
p1316
sS'Foxy-brown'
p1317
S'Foxy Brown'
p1318
sS'Common'
p1319
S'Common'
p1320
sS'Redman'
p1321
S'Redman'
p1322
sS'Rich-homie-quan'
p1323
S'Rich Homie Quan'
p1324
sS'Stalley'
p1325
S'Stalley'
p1326
sS'T-bone'
p1327
S'T Bone'
p1328
sS'Earl-sweatshirt'
p1329
S'Earl Sweatshirt'
p1330
sS'Foxx'
p1331
S'Foxx'
p1332
sS'Lil-b'
p1333
S'Lil B'
p1334
sS'Chris-brown'
p1335
S'Chris Brown'
p1336
sS'Diggy-simmons'
p1337
S'Diggy Simmons'
p1338
sS'Lil-debbie'
p1339
S'Lil Debbie'
p1340
sS'Jae-millz'
p1341
S'Jae Millz'
p1342
sS'Lil-reese'
p1343
S'Lil Reese'
p1344
sS'Isaiah-rashad'
p1345
S'Isaiah Rashad'
p1346
sS'J-stalin'
p1347
S'J Stalin'
p1348
sS'Lupe-fiasco'
p1349
S'Lupe Fiasco'
p1350
sS'Kitty'
p1351
S'Kitty'
p1352
sS'Amg'
p1353
S'Amg'
p1354
sS'Bow-wow'
p1355
S'Bow Wow'
p1356
sS'Jarren-benton'
p1357
S'Jarren Benton'
p1358
sS'Slim-thug'
p1359
S'Slim Thug'
p1360
sS'G-dep'
p1361
S'G Dep'
p1362
sS'Flatbush-zombies'
p1363
S'Flatbush Zombies'
p1364
sS'Tonedeff'
p1365
S'Tonedeff'
p1366
sS'Fatman-scoop'
p1367
S'Fatman Scoop'
p1368
sS'Lil-flip'
p1369
S'Lil Flip'
p1370
sS'Jme'
p1371
S'Jme'
p1372
sS'Eyedea'
p1373
S'Eyedea'
p1374
sS'Dillon-cooper'
p1375
S'Dillon Cooper'
p1376
sS'Cappadonna'
p1377
S'Cappadonna'
p1378
sS'Apathy'
p1379
S'Apathy'
p1380
sS'Silla'
p1381
S'Silla'
p1382
sS'Mack-10'
p1383
S'Mack 10'
p1384
sS'Dev'
p1385
S'Dev'
p1386
sS'Jay-park'
p1387
S'Jay Park'
p1388
sS'Rocko'
p1389
S'Rocko'
p1390
sS'Flame'
p1391
S'Flame'
p1392
sS'Cassidy'
p1393
S'Cassidy'
p1394
sS'The-underachievers'
p1395
S'The Underachievers'
p1396
sS'Mystikal'
p1397
S'Mystikal'
p1398
sS'Wale'
p1399
S'Wale'
p1400
sS'Chubb-rock'
p1401
S'Chubb Rock'
p1402
sS'Kodak-black'
p1403
S'Kodak Black'
p1404
sS'Nyck-caution'
p1405
S'Nyck Caution'
p1406
sS'Pharoahe-monch'
p1407
S'Pharoahe Monch'
p1408
sS'Trip-lee'
p1409
S'Trip Lee'
p1410
sS'Shawty-lo'
p1411
S'Shawty Lo'
p1412
sS'Memphis-bleek'
p1413
S'Memphis Bleek'
p1414
sS'The-knocks'
p1415
S'The Knocks'
p1416
sS'Biz-markie'
p1417
S'Biz Markie'
p1418
sS'Mike-stud'
p1419
S'Mike Stud'
p1420
sS'Mr-cheeks'
p1421
S'Mr Cheeks'
p1422
sS'Havoc'
p1423
S'Havoc'
p1424
sS'Esg'
p1425
S'Esg'
p1426
sS'Yung-la'
p1427
S'Yung La'
p1428
sS'Danny-brown'
p1429
S'Danny Brown'
p1430
sS'Edo-g'
p1431
S'Edo G'
p1432
sS'Wu-tang-clan'
p1433
S'Wu Tang Clan'
p1434
sS'Funkmaster-flex'
p1435
S'Funkmaster Flex'
p1436
sS'Jamie-foxx'
p1437
S'Jamie Foxx'
p1438
sS'Rappin-4-tay'
p1439
S'Rappin 4 Tay'
p1440
sS'Young-noble'
p1441
S'Young Noble'
p1442
sS'Boosie-badazz'
p1443
S'Boosie Badazz'
p1444
sS'Quavo'
p1445
S'Quavo'
p1446
sS'Hittman'
p1447
S'Hittman'
p1448
sS'Mc-ren'
p1449
S'Mc Ren'
p1450
sS'Wizkid'
p1451
S'Wizkid'
p1452
sS'J-cole'
p1453
S'J Cole'
p1454
sS'Tyga'
p1455
S'Tyga'
p1456
sS'Mac'
p1457
S'Mac'
p1458
sS'Kool-g-rap'
p1459
S'Kool G Rap'
p1460
sS'Yaki-kadafi'
p1461
S'Yaki Kadafi'
p1462
sS'William'
p1463
S'William'
p1464
sS'Mickey-factz'
p1465
S'Mickey Factz'
p1466
sS'Hi-tek'
p1467
S'Hi Tek'
p1468
sS'Crooked-i'
p1469
S'Crooked I'
p1470
sS'Da-h'
p1471
S'Da H'
p1472
sS'Future'
p1473
S'Future'
p1474
sS'Big-boi'
p1475
S'Big Boi'
p1476
sS'Jr-writer'
p1477
S'Jr Writer'
p1478
sS'Consequence'
p1479
S'Consequence'
p1480
sS'Jeremih'
p1481
S'Jeremih'
p1482
sS'Yoonmirae'
p1483
S'Yoonmirae'
p1484
sS'Jay-z'
p1485
S'Jay Z'
p1486
sS'Big-scoob'
p1487
S'Big Scoob'
p1488
sS'Jedi-mind-tricks'
p1489
S'Jedi Mind Tricks'
p1490
sS'Open-mike-eagle'
p1491
S'Open Mike Eagle'
p1492
sS'Outkast'
p1493
S'Outkast'
p1494
sS'Gaeko'
p1495
S'Gaeko'
p1496
sS'Nicki-minaj'
p1497
S'Nicki Minaj'
p1498
sS'Machine-gun-kelly'
p1499
S'Machine Gun Kelly'
p1500
sS'Louis-logic'
p1501
S'Louis Logic'
p1502
sS'Gorilla-zoe'
p1503
S'Gorilla Zoe'
p1504
sS'Yung-joc'
p1505
S'Yung Joc'
p1506
sS'Father-mc'
p1507
S'Father Mc'
p1508
sS'Kendrick-lamar'
p1509
S'Kendrick Lamar'
p1510
sS'Az'
p1511
S'Az'
p1512
sS'Tobymac'
p1513
S'Tobymac'
p1514
s.